SF:/Users/waku/dev/govee/src/backend/cloud.rs
FN:364,_RINvMNtNtCsf2i7I5CTk8o_5govee7backend5cloudNtB3_12CloudBackend11new_api_getNtNtCs2gIcK9cuZ92_10serde_json5value5ValueuECs91vKP4uy340_10cloud_mock
FN:328,_RINvMNtNtCsf2i7I5CTk8o_5govee7backend5cloudNtB3_12CloudBackend12new_api_postNtNtCs2gIcK9cuZ92_10serde_json5value5ValueB1c_ECs91vKP4uy340_10cloud_mock
FN:328,_RINvMNtNtCsf2i7I5CTk8o_5govee7backend5cloudNtB3_12CloudBackend12new_api_postNtNtCs2gIcK9cuZ92_10serde_json5value5ValueNtCs91vKP4uy340_10cloud_mock15ConcretePayloadEB1U_
FN:368,_RNCINvMNtNtCsf2i7I5CTk8o_5govee7backend5cloudNtB5_12CloudBackend11new_api_getNtNtCs2gIcK9cuZ92_10serde_json5value5ValueuE0Cs91vKP4uy340_10cloud_mock
FN:332,_RNCINvMNtNtCsf2i7I5CTk8o_5govee7backend5cloudNtB5_12CloudBackend12new_api_postNtNtCs2gIcK9cuZ92_10serde_json5value5ValueB1e_E0Cs91vKP4uy340_10cloud_mock
FN:332,_RNCINvMNtNtCsf2i7I5CTk8o_5govee7backend5cloudNtB5_12CloudBackend12new_api_postNtNtCs2gIcK9cuZ92_10serde_json5value5ValueNtCs91vKP4uy340_10cloud_mock15ConcretePayloadE0B1W_
FN:369,_RNCNCINvMNtNtCsf2i7I5CTk8o_5govee7backend5cloudNtB7_12CloudBackend11new_api_getNtNtCs2gIcK9cuZ92_10serde_json5value5ValueuE00Cs91vKP4uy340_10cloud_mock
FN:333,_RNCNCINvMNtNtCsf2i7I5CTk8o_5govee7backend5cloudNtB7_12CloudBackend12new_api_postNtNtCs2gIcK9cuZ92_10serde_json5value5ValueB1g_E00Cs91vKP4uy340_10cloud_mock
FN:333,_RNCNCINvMNtNtCsf2i7I5CTk8o_5govee7backend5cloudNtB7_12CloudBackend12new_api_postNtNtCs2gIcK9cuZ92_10serde_json5value5ValueNtCs91vKP4uy340_10cloud_mock15ConcretePayloadE00B1Y_
FN:364,_RINvMNtNtCsf2i7I5CTk8o_5govee7backend5cloudNtB3_12CloudBackend11new_api_getINtNtCsdFlNUEO95cG_5alloc3vec3VecNtB3_8V2DeviceEuEB7_
FN:328,_RINvMNtNtCsf2i7I5CTk8o_5govee7backend5cloudNtB3_12CloudBackend12new_api_postNtB3_14ControlPayloadNtNtCs2gIcK9cuZ92_10serde_json5value5ValueEB7_
FN:328,_RINvMNtNtCsf2i7I5CTk8o_5govee7backend5cloudNtB3_12CloudBackend12new_api_postNtNtCs2gIcK9cuZ92_10serde_json5value5ValueNtB3_17SceneListResponseEB7_
FN:328,_RINvMNtNtCsf2i7I5CTk8o_5govee7backend5cloudNtB3_12CloudBackend12new_api_postNtNtCs2gIcK9cuZ92_10serde_json5value5ValueNtB3_20DiySceneListResponseEB7_
FN:328,_RINvMNtNtCsf2i7I5CTk8o_5govee7backend5cloudNtB3_12CloudBackend12new_api_postNtNtCs2gIcK9cuZ92_10serde_json5value5ValueNtNCNvB2_12get_state_v2015V2StateResponseEB7_
FN:368,_RNCINvMNtNtCsf2i7I5CTk8o_5govee7backend5cloudNtB5_12CloudBackend11new_api_getINtNtCsdFlNUEO95cG_5alloc3vec3VecNtB5_8V2DeviceEuE0B9_
FN:332,_RNCINvMNtNtCsf2i7I5CTk8o_5govee7backend5cloudNtB5_12CloudBackend12new_api_postNtB5_14ControlPayloadNtNtCs2gIcK9cuZ92_10serde_json5value5ValueE0B9_
FN:332,_RNCINvMNtNtCsf2i7I5CTk8o_5govee7backend5cloudNtB5_12CloudBackend12new_api_postNtNtCs2gIcK9cuZ92_10serde_json5value5ValueNtB5_17SceneListResponseE0B9_
FN:332,_RNCINvMNtNtCsf2i7I5CTk8o_5govee7backend5cloudNtB5_12CloudBackend12new_api_postNtNtCs2gIcK9cuZ92_10serde_json5value5ValueNtB5_20DiySceneListResponseE0B9_
FN:332,_RNCINvMNtNtCsf2i7I5CTk8o_5govee7backend5cloudNtB5_12CloudBackend12new_api_postNtNtCs2gIcK9cuZ92_10serde_json5value5ValueNtNCNvB4_12get_state_v2015V2StateResponseE0B9_
FN:369,_RNCNCINvMNtNtCsf2i7I5CTk8o_5govee7backend5cloudNtB7_12CloudBackend11new_api_getINtNtCsdFlNUEO95cG_5alloc3vec3VecNtB7_8V2DeviceEuE00Bb_
FN:333,_RNCNCINvMNtNtCsf2i7I5CTk8o_5govee7backend5cloudNtB7_12CloudBackend12new_api_postNtB7_14ControlPayloadNtNtCs2gIcK9cuZ92_10serde_json5value5ValueE00Bb_
FN:333,_RNCNCINvMNtNtCsf2i7I5CTk8o_5govee7backend5cloudNtB7_12CloudBackend12new_api_postNtNtCs2gIcK9cuZ92_10serde_json5value5ValueNtB7_17SceneListResponseE00Bb_
FN:333,_RNCNCINvMNtNtCsf2i7I5CTk8o_5govee7backend5cloudNtB7_12CloudBackend12new_api_postNtNtCs2gIcK9cuZ92_10serde_json5value5ValueNtB7_20DiySceneListResponseE00Bb_
FN:333,_RNCNCINvMNtNtCsf2i7I5CTk8o_5govee7backend5cloudNtB7_12CloudBackend12new_api_postNtNtCs2gIcK9cuZ92_10serde_json5value5ValueNtNCNvB6_12get_state_v2015V2StateResponseE00Bb_
FN:920,_RNCNCNCNCNvXs2_NtNtCsf2i7I5CTk8o_5govee7backend5cloudNtBd_12CloudBackendNtBf_12GoveeBackend12list_devices0000Bh_
FN:936,_RNCNCNCNCNvXs2_NtNtCsf2i7I5CTk8o_5govee7backend5cloudNtBd_12CloudBackendNtBf_12GoveeBackend12list_devices00s0_00Bh_
FN:467,_RNCNCNCNvMNtNtCsf2i7I5CTk8o_5govee7backend5cloudNtB8_12CloudBackend21list_diy_scenes_cloud000Bc_
FN:1117,_RNCNCNCNvXs2_NtNtCsf2i7I5CTk8o_5govee7backend5cloudNtBb_12CloudBackendNtBd_12GoveeBackend11list_scenes000Bf_
FN:1139,_RNCNCNCNvXs2_NtNtCsf2i7I5CTk8o_5govee7backend5cloudNtBb_12CloudBackendNtBd_12GoveeBackend11list_scenes00s_0Bf_
FN:917,_RNCNCNCNvXs2_NtNtCsf2i7I5CTk8o_5govee7backend5cloudNtBb_12CloudBackendNtBd_12GoveeBackend12list_devices000Bf_
FN:932,_RNCNCNCNvXs2_NtNtCsf2i7I5CTk8o_5govee7backend5cloudNtBb_12CloudBackendNtBd_12GoveeBackend12list_devices00s0_0Bf_
FN:964,_RNCNCNCNvXs2_NtNtCsf2i7I5CTk8o_5govee7backend5cloudNtBb_12CloudBackendNtBd_12GoveeBackend12list_devices00s1_0Bf_
FN:969,_RNCNCNCNvXs2_NtNtCsf2i7I5CTk8o_5govee7backend5cloudNtBb_12CloudBackendNtBd_12GoveeBackend12list_devices00s2_0Bf_
FN:984,_RNCNCNCNvXs2_NtNtCsf2i7I5CTk8o_5govee7backend5cloudNtBb_12CloudBackendNtBd_12GoveeBackend12list_devices00s3_0Bf_
FN:987,_RNCNCNCNvXs2_NtNtCsf2i7I5CTk8o_5govee7backend5cloudNtBb_12CloudBackendNtBd_12GoveeBackend12list_devices00s4_0Bf_
FN:1011,_RNCNCNCNvXs2_NtNtCsf2i7I5CTk8o_5govee7backend5cloudNtBb_12CloudBackendNtBd_12GoveeBackend12list_devices00s5_0Bf_
FN:1016,_RNCNCNCNvXs2_NtNtCsf2i7I5CTk8o_5govee7backend5cloudNtBb_12CloudBackendNtBd_12GoveeBackend12list_devices00s6_0Bf_
FN:926,_RNCNCNCNvXs2_NtNtCsf2i7I5CTk8o_5govee7backend5cloudNtBb_12CloudBackendNtBd_12GoveeBackend12list_devices00s_0Bf_
FN:1208,_RNCNCNCNvXs2_NtNtCsf2i7I5CTk8o_5govee7backend5cloudNtBb_12CloudBackendNtBd_12GoveeBackend15list_work_modes000Bf_
FN:187,_RNCNCNvMNtNtCsf2i7I5CTk8o_5govee7backend5cloudNtB6_12CloudBackend12send_control00Ba_
FN:265,_RNCNCNvMNtNtCsf2i7I5CTk8o_5govee7backend5cloudNtB6_12CloudBackend14check_response00Ba_
FN:467,_RNCNCNvMNtNtCsf2i7I5CTk8o_5govee7backend5cloudNtB6_12CloudBackend21list_diy_scenes_cloud00Ba_
FN:488,_RNCNCNvMNtNtCsf2i7I5CTk8o_5govee7backend5cloudNtB6_12CloudBackend21list_diy_scenes_cloud0s_0Ba_
FN:647,_RNCNCNvMs_NtNtCsf2i7I5CTk8o_5govee7backend5cloudNtB8_12CloudBackend12v1_get_state00Bc_
FN:885,_RNCNCNvNtNtCsf2i7I5CTk8o_5govee7backend5cloud16parse_work_modes00B9_
FN:543,_RNCNvMNtNtCsf2i7I5CTk8o_5govee7backend5cloudNtB4_12CloudBackend10control_v20B8_
FN:395,_RNCNvMNtNtCsf2i7I5CTk8o_5govee7backend5cloudNtB4_12CloudBackend12get_state_v20B8_
FN:182,_RNCNvMNtNtCsf2i7I5CTk8o_5govee7backend5cloudNtB4_12CloudBackend12send_control0B8_
FN:254,_RNCNvMNtNtCsf2i7I5CTk8o_5govee7backend5cloudNtB4_12CloudBackend14check_response0B8_
FN:520,_RNCNvMNtNtCsf2i7I5CTk8o_5govee7backend5cloudNtB4_12CloudBackend15list_devices_v20B8_
FN:533,_RNCNvMNtNtCsf2i7I5CTk8o_5govee7backend5cloudNtB4_12CloudBackend16get_capabilities0B8_
FN:504,_RNCNvMNtNtCsf2i7I5CTk8o_5govee7backend5cloudNtB4_12CloudBackend17with_new_api_base0B8_
FN:463,_RNCNvMNtNtCsf2i7I5CTk8o_5govee7backend5cloudNtB4_12CloudBackend21list_diy_scenes_cloud0B8_
FN:126,_RNCNvMNtNtCsf2i7I5CTk8o_5govee7backend5cloudNtB4_12CloudBackend3new0B8_
FN:135,_RNCNvMNtNtCsf2i7I5CTk8o_5govee7backend5cloudNtB4_12CloudBackend3news0_0B8_
FN:142,_RNCNvMNtNtCsf2i7I5CTk8o_5govee7backend5cloudNtB4_12CloudBackend3news1_0B8_
FN:133,_RNCNvMNtNtCsf2i7I5CTk8o_5govee7backend5cloudNtB4_12CloudBackend3news_0B8_
FN:164,_RNCNvMNtNtCsf2i7I5CTk8o_5govee7backend5cloudNtB4_12CloudBackend9get_model0B8_
FN:165,_RNCNvMNtNtCsf2i7I5CTk8o_5govee7backend5cloudNtB4_12CloudBackend9get_models_0B8_
FN:627,_RNCNvMs_NtNtCsf2i7I5CTk8o_5govee7backend5cloudNtB6_12CloudBackend12v1_get_state0Ba_
FN:53,_RNCNvNtNtCsf2i7I5CTk8o_5govee7backend5cloud11is_loopback0B7_
FN:56,_RNCNvNtNtCsf2i7I5CTk8o_5govee7backend5cloud11is_loopbacks_0B7_
FN:63,_RNCNvNtNtCsf2i7I5CTk8o_5govee7backend5cloud12build_client0B7_
FN:884,_RNCNvNtNtCsf2i7I5CTk8o_5govee7backend5cloud16parse_work_modes0B7_
FN:901,_RNCNvNtNtCsf2i7I5CTk8o_5govee7backend5cloud17parse_retry_after0B7_
FN:902,_RNCNvNtNtCsf2i7I5CTk8o_5govee7backend5cloud17parse_retry_afters_0B7_
FN:824,_RNCNvNtNtCsf2i7I5CTk8o_5govee7backend5cloud27build_state_from_properties0B7_
FN:830,_RNCNvNtNtCsf2i7I5CTk8o_5govee7backend5cloud27build_state_from_propertiess0_0B7_
FN:833,_RNCNvNtNtCsf2i7I5CTk8o_5govee7backend5cloud27build_state_from_propertiess1_0B7_
FN:834,_RNCNvNtNtCsf2i7I5CTk8o_5govee7backend5cloud27build_state_from_propertiess2_0B7_
FN:835,_RNCNvNtNtCsf2i7I5CTk8o_5govee7backend5cloud27build_state_from_propertiess3_0B7_
FN:836,_RNCNvNtNtCsf2i7I5CTk8o_5govee7backend5cloud27build_state_from_propertiess4_0B7_
FN:839,_RNCNvNtNtCsf2i7I5CTk8o_5govee7backend5cloud27build_state_from_propertiess5_0B7_
FN:827,_RNCNvNtNtCsf2i7I5CTk8o_5govee7backend5cloud27build_state_from_propertiess_0B7_
FN:1240,_RNCNvXs1_NtNtCsf2i7I5CTk8o_5govee7backend5cloudNtB7_12CloudBackendNtNtCs85QQFkKrybG_4core3fmt5Debug3fmt0Bb_
FN:1244,_RNCNvXs1_NtNtCsf2i7I5CTk8o_5govee7backend5cloudNtB7_12CloudBackendNtNtCs85QQFkKrybG_4core3fmt5Debug3fmts_0Bb_
FN:543,_RNvMNtNtCsf2i7I5CTk8o_5govee7backend5cloudNtB2_12CloudBackend10control_v2
FN:277,_RNvMNtNtCsf2i7I5CTk8o_5govee7backend5cloudNtB2_12CloudBackend11retry_delay
FN:395,_RNvMNtNtCsf2i7I5CTk8o_5govee7backend5cloudNtB2_12CloudBackend12get_state_v2
FN:177,_RNvMNtNtCsf2i7I5CTk8o_5govee7backend5cloudNtB2_12CloudBackend12send_control
FN:254,_RNvMNtNtCsf2i7I5CTk8o_5govee7backend5cloudNtB2_12CloudBackend14check_response
FN:520,_RNvMNtNtCsf2i7I5CTk8o_5govee7backend5cloudNtB2_12CloudBackend15list_devices_v2
FN:530,_RNvMNtNtCsf2i7I5CTk8o_5govee7backend5cloudNtB2_12CloudBackend16get_capabilities
FN:503,_RNvMNtNtCsf2i7I5CTk8o_5govee7backend5cloudNtB2_12CloudBackend17with_new_api_base
FN:293,_RNvMNtNtCsf2i7I5CTk8o_5govee7backend5cloudNtB2_12CloudBackend20map_new_api_code_err
FN:463,_RNvMNtNtCsf2i7I5CTk8o_5govee7backend5cloudNtB2_12CloudBackend21list_diy_scenes_cloud
FN:119,_RNvMNtNtCsf2i7I5CTk8o_5govee7backend5cloudNtB2_12CloudBackend3new
FN:160,_RNvMNtNtCsf2i7I5CTk8o_5govee7backend5cloudNtB2_12CloudBackend9get_model
FN:777,_RNvMs0_NtNtCsf2i7I5CTk8o_5govee7backend5cloudNtB5_8V1Device11into_domain
FN:627,_RNvMs_NtNtCsf2i7I5CTk8o_5govee7backend5cloudNtB4_12CloudBackend12v1_get_state
FN:36,_RNvNtNtCsf2i7I5CTk8o_5govee7backend5cloud10user_agent
FN:46,_RNvNtNtCsf2i7I5CTk8o_5govee7backend5cloud11is_loopback
FN:62,_RNvNtNtCsf2i7I5CTk8o_5govee7backend5cloud12build_client
FN:876,_RNvNtNtCsf2i7I5CTk8o_5govee7backend5cloud16parse_work_modes
FN:897,_RNvNtNtCsf2i7I5CTk8o_5govee7backend5cloud17parse_retry_after
FN:816,_RNvNtNtCsf2i7I5CTk8o_5govee7backend5cloud27build_state_from_properties
FN:1239,_RNvXs1_NtNtCsf2i7I5CTk8o_5govee7backend5cloudNtB5_12CloudBackendNtNtCs85QQFkKrybG_4core3fmt5Debug3fmt
FN:1233,_RNvXs2_NtNtCsf2i7I5CTk8o_5govee7backend5cloudNtB5_12CloudBackendNtB7_12GoveeBackend12backend_type
FN:1280,_RNvNtNtNtCseqgZqxOBWDO_5govee7backend5cloud5testss_19rejects_invalid_url
FN:1269,_RNvNtNtNtCseqgZqxOBWDO_5govee7backend5cloud5testss_20allows_http_loopback
FN:1307,_RNvNtNtNtCseqgZqxOBWDO_5govee7backend5cloud5testss_21debug_redacts_api_key
FN:1315,_RNvNtNtNtCseqgZqxOBWDO_5govee7backend5cloud5testss_21v1_device_into_domain
FN:1287,_RNvNtNtNtCseqgZqxOBWDO_5govee7backend5cloud5testss_22accepts_https_base_url
FN:1417,_RNvNtNtNtCseqgZqxOBWDO_5govee7backend5cloud5testss_24user_agent_crlf_rejected
FN:1469,_RNvNtNtNtCseqgZqxOBWDO_5govee7backend5cloud5testss_25allows_http_ipv6_loopback
FN:1293,_RNvNtNtNtCseqgZqxOBWDO_5govee7backend5cloud5testss_25default_base_url_is_https
FN:1260,_RNvNtNtNtCseqgZqxOBWDO_5govee7backend5cloud5testss_25rejects_http_non_loopback
FN:1299,_RNvNtNtNtCseqgZqxOBWDO_5govee7backend5cloud5testss_25trailing_slash_normalized
FN:1340,_RNvNtNtNtCseqgZqxOBWDO_5govee7backend5cloud5testss_26build_state_all_properties
FN:1411,_RNvNtNtNtCseqgZqxOBWDO_5govee7backend5cloud5testss_26custom_user_agent_accepted
FN:1404,_RNvNtNtNtCseqgZqxOBWDO_5govee7backend5cloud5testss_27user_agent_contains_version
FN:1360,_RNvNtNtNtCseqgZqxOBWDO_5govee7backend5cloud5testss_28build_state_offline_is_stale
FN:1371,_RNvNtNtNtCseqgZqxOBWDO_5govee7backend5cloud5testss_29build_state_clamps_brightness
FN:1429,_RNvNtNtNtCseqgZqxOBWDO_5govee7backend5cloud5testss_29user_agent_null_byte_rejected
FN:1387,_RNvNtNtNtCseqgZqxOBWDO_5govee7backend5cloud5testss_34build_state_clamps_color_above_255
FN:1455,_RNvNtNtNtCseqgZqxOBWDO_5govee7backend5cloud5testss_34map_new_api_code_err_overflows_u16
FN:1436,_RNvNtNtNtCseqgZqxOBWDO_5govee7backend5cloud5testss_35set_color_temp_kelvin_zero_rejected
FN:1330,_RNvNtNtNtCseqgZqxOBWDO_5govee7backend5cloud5testss_35v1_device_invalid_mac_returns_error
FN:1462,_RNvNtNtNtCseqgZqxOBWDO_5govee7backend5cloud5testss_37with_new_api_base_rejects_invalid_url
FN:1395,_RNvNtNtNtCseqgZqxOBWDO_5govee7backend5cloud5testss_38build_state_unknown_properties_ignored
FN:1379,_RNvNtNtNtCseqgZqxOBWDO_5govee7backend5cloud5testss_39build_state_clamps_brightness_above_255
FN:1475,_RNvNtNtNtCseqgZqxOBWDO_5govee7backend5cloud5testss_40get_capabilities_returns_none_when_empty
FN:1482,_RNvNtNtNtCseqgZqxOBWDO_5govee7backend5cloud5testss_42control_v2_not_implemented_for_raw_variant
FN:1446,_RNvNtNtNtCseqgZqxOBWDO_5govee7backend5cloud5testss_42set_color_temp_kelvin_above_10000_rejected
FN:364,_RINvMNtNtCseqgZqxOBWDO_5govee7backend5cloudNtB3_12CloudBackend11new_api_getINtNtCsdFlNUEO95cG_5alloc3vec3VecNtB3_8V2DeviceEuEB7_
FN:328,_RINvMNtNtCseqgZqxOBWDO_5govee7backend5cloudNtB3_12CloudBackend12new_api_postNtB3_14ControlPayloadNtNtCs2gIcK9cuZ92_10serde_json5value5ValueEB7_
FN:328,_RINvMNtNtCseqgZqxOBWDO_5govee7backend5cloudNtB3_12CloudBackend12new_api_postNtNtCs2gIcK9cuZ92_10serde_json5value5ValueNtB3_17SceneListResponseEB7_
FN:328,_RINvMNtNtCseqgZqxOBWDO_5govee7backend5cloudNtB3_12CloudBackend12new_api_postNtNtCs2gIcK9cuZ92_10serde_json5value5ValueNtB3_20DiySceneListResponseEB7_
FN:328,_RINvMNtNtCseqgZqxOBWDO_5govee7backend5cloudNtB3_12CloudBackend12new_api_postNtNtCs2gIcK9cuZ92_10serde_json5value5ValueNtNCNvB2_12get_state_v2015V2StateResponseEB7_
FN:368,_RNCINvMNtNtCseqgZqxOBWDO_5govee7backend5cloudNtB5_12CloudBackend11new_api_getINtNtCsdFlNUEO95cG_5alloc3vec3VecNtB5_8V2DeviceEuE0B9_
FN:332,_RNCINvMNtNtCseqgZqxOBWDO_5govee7backend5cloudNtB5_12CloudBackend12new_api_postNtB5_14ControlPayloadNtNtCs2gIcK9cuZ92_10serde_json5value5ValueE0B9_
FN:332,_RNCINvMNtNtCseqgZqxOBWDO_5govee7backend5cloudNtB5_12CloudBackend12new_api_postNtNtCs2gIcK9cuZ92_10serde_json5value5ValueNtB5_17SceneListResponseE0B9_
FN:332,_RNCINvMNtNtCseqgZqxOBWDO_5govee7backend5cloudNtB5_12CloudBackend12new_api_postNtNtCs2gIcK9cuZ92_10serde_json5value5ValueNtB5_20DiySceneListResponseE0B9_
FN:332,_RNCINvMNtNtCseqgZqxOBWDO_5govee7backend5cloudNtB5_12CloudBackend12new_api_postNtNtCs2gIcK9cuZ92_10serde_json5value5ValueNtNCNvB4_12get_state_v2015V2StateResponseE0B9_
FN:369,_RNCNCINvMNtNtCseqgZqxOBWDO_5govee7backend5cloudNtB7_12CloudBackend11new_api_getINtNtCsdFlNUEO95cG_5alloc3vec3VecNtB7_8V2DeviceEuE00Bb_
FN:333,_RNCNCINvMNtNtCseqgZqxOBWDO_5govee7backend5cloudNtB7_12CloudBackend12new_api_postNtB7_14ControlPayloadNtNtCs2gIcK9cuZ92_10serde_json5value5ValueE00Bb_
FN:333,_RNCNCINvMNtNtCseqgZqxOBWDO_5govee7backend5cloudNtB7_12CloudBackend12new_api_postNtNtCs2gIcK9cuZ92_10serde_json5value5ValueNtB7_17SceneListResponseE00Bb_
FN:333,_RNCNCINvMNtNtCseqgZqxOBWDO_5govee7backend5cloudNtB7_12CloudBackend12new_api_postNtNtCs2gIcK9cuZ92_10serde_json5value5ValueNtB7_20DiySceneListResponseE00Bb_
FN:333,_RNCNCINvMNtNtCseqgZqxOBWDO_5govee7backend5cloudNtB7_12CloudBackend12new_api_postNtNtCs2gIcK9cuZ92_10serde_json5value5ValueNtNCNvB6_12get_state_v2015V2StateResponseE00Bb_
FN:920,_RNCNCNCNCNvXs2_NtNtCseqgZqxOBWDO_5govee7backend5cloudNtBd_12CloudBackendNtBf_12GoveeBackend12list_devices0000Bh_
FN:936,_RNCNCNCNCNvXs2_NtNtCseqgZqxOBWDO_5govee7backend5cloudNtBd_12CloudBackendNtBf_12GoveeBackend12list_devices00s0_00Bh_
FN:467,_RNCNCNCNvMNtNtCseqgZqxOBWDO_5govee7backend5cloudNtB8_12CloudBackend21list_diy_scenes_cloud000Bc_
FN:1117,_RNCNCNCNvXs2_NtNtCseqgZqxOBWDO_5govee7backend5cloudNtBb_12CloudBackendNtBd_12GoveeBackend11list_scenes000Bf_
FN:1139,_RNCNCNCNvXs2_NtNtCseqgZqxOBWDO_5govee7backend5cloudNtBb_12CloudBackendNtBd_12GoveeBackend11list_scenes00s_0Bf_
FN:917,_RNCNCNCNvXs2_NtNtCseqgZqxOBWDO_5govee7backend5cloudNtBb_12CloudBackendNtBd_12GoveeBackend12list_devices000Bf_
FN:932,_RNCNCNCNvXs2_NtNtCseqgZqxOBWDO_5govee7backend5cloudNtBb_12CloudBackendNtBd_12GoveeBackend12list_devices00s0_0Bf_
FN:964,_RNCNCNCNvXs2_NtNtCseqgZqxOBWDO_5govee7backend5cloudNtBb_12CloudBackendNtBd_12GoveeBackend12list_devices00s1_0Bf_
FN:969,_RNCNCNCNvXs2_NtNtCseqgZqxOBWDO_5govee7backend5cloudNtBb_12CloudBackendNtBd_12GoveeBackend12list_devices00s2_0Bf_
FN:984,_RNCNCNCNvXs2_NtNtCseqgZqxOBWDO_5govee7backend5cloudNtBb_12CloudBackendNtBd_12GoveeBackend12list_devices00s3_0Bf_
FN:987,_RNCNCNCNvXs2_NtNtCseqgZqxOBWDO_5govee7backend5cloudNtBb_12CloudBackendNtBd_12GoveeBackend12list_devices00s4_0Bf_
FN:1011,_RNCNCNCNvXs2_NtNtCseqgZqxOBWDO_5govee7backend5cloudNtBb_12CloudBackendNtBd_12GoveeBackend12list_devices00s5_0Bf_
FN:1016,_RNCNCNCNvXs2_NtNtCseqgZqxOBWDO_5govee7backend5cloudNtBb_12CloudBackendNtBd_12GoveeBackend12list_devices00s6_0Bf_
FN:926,_RNCNCNCNvXs2_NtNtCseqgZqxOBWDO_5govee7backend5cloudNtBb_12CloudBackendNtBd_12GoveeBackend12list_devices00s_0Bf_
FN:1208,_RNCNCNCNvXs2_NtNtCseqgZqxOBWDO_5govee7backend5cloudNtBb_12CloudBackendNtBd_12GoveeBackend15list_work_modes000Bf_
FN:187,_RNCNCNvMNtNtCseqgZqxOBWDO_5govee7backend5cloudNtB6_12CloudBackend12send_control00Ba_
FN:265,_RNCNCNvMNtNtCseqgZqxOBWDO_5govee7backend5cloudNtB6_12CloudBackend14check_response00Ba_
FN:467,_RNCNCNvMNtNtCseqgZqxOBWDO_5govee7backend5cloudNtB6_12CloudBackend21list_diy_scenes_cloud00Ba_
FN:488,_RNCNCNvMNtNtCseqgZqxOBWDO_5govee7backend5cloudNtB6_12CloudBackend21list_diy_scenes_cloud0s_0Ba_
FN:647,_RNCNCNvMs_NtNtCseqgZqxOBWDO_5govee7backend5cloudNtB8_12CloudBackend12v1_get_state00Bc_
FN:885,_RNCNCNvNtNtCseqgZqxOBWDO_5govee7backend5cloud16parse_work_modes00B9_
FN:543,_RNCNvMNtNtCseqgZqxOBWDO_5govee7backend5cloudNtB4_12CloudBackend10control_v20B8_
FN:395,_RNCNvMNtNtCseqgZqxOBWDO_5govee7backend5cloudNtB4_12CloudBackend12get_state_v20B8_
FN:182,_RNCNvMNtNtCseqgZqxOBWDO_5govee7backend5cloudNtB4_12CloudBackend12send_control0B8_
FN:254,_RNCNvMNtNtCseqgZqxOBWDO_5govee7backend5cloudNtB4_12CloudBackend14check_response0B8_
FN:520,_RNCNvMNtNtCseqgZqxOBWDO_5govee7backend5cloudNtB4_12CloudBackend15list_devices_v20B8_
FN:533,_RNCNvMNtNtCseqgZqxOBWDO_5govee7backend5cloudNtB4_12CloudBackend16get_capabilities0B8_
FN:504,_RNCNvMNtNtCseqgZqxOBWDO_5govee7backend5cloudNtB4_12CloudBackend17with_new_api_base0B8_
FN:463,_RNCNvMNtNtCseqgZqxOBWDO_5govee7backend5cloudNtB4_12CloudBackend21list_diy_scenes_cloud0B8_
FN:126,_RNCNvMNtNtCseqgZqxOBWDO_5govee7backend5cloudNtB4_12CloudBackend3new0B8_
FN:135,_RNCNvMNtNtCseqgZqxOBWDO_5govee7backend5cloudNtB4_12CloudBackend3news0_0B8_
FN:142,_RNCNvMNtNtCseqgZqxOBWDO_5govee7backend5cloudNtB4_12CloudBackend3news1_0B8_
FN:133,_RNCNvMNtNtCseqgZqxOBWDO_5govee7backend5cloudNtB4_12CloudBackend3news_0B8_
FN:164,_RNCNvMNtNtCseqgZqxOBWDO_5govee7backend5cloudNtB4_12CloudBackend9get_model0B8_
FN:165,_RNCNvMNtNtCseqgZqxOBWDO_5govee7backend5cloudNtB4_12CloudBackend9get_models_0B8_
FN:627,_RNCNvMs_NtNtCseqgZqxOBWDO_5govee7backend5cloudNtB6_12CloudBackend12v1_get_state0Ba_
FN:53,_RNCNvNtNtCseqgZqxOBWDO_5govee7backend5cloud11is_loopback0B7_
FN:56,_RNCNvNtNtCseqgZqxOBWDO_5govee7backend5cloud11is_loopbacks_0B7_
FN:63,_RNCNvNtNtCseqgZqxOBWDO_5govee7backend5cloud12build_client0B7_
FN:884,_RNCNvNtNtCseqgZqxOBWDO_5govee7backend5cloud16parse_work_modes0B7_
FN:901,_RNCNvNtNtCseqgZqxOBWDO_5govee7backend5cloud17parse_retry_after0B7_
FN:902,_RNCNvNtNtCseqgZqxOBWDO_5govee7backend5cloud17parse_retry_afters_0B7_
FN:824,_RNCNvNtNtCseqgZqxOBWDO_5govee7backend5cloud27build_state_from_properties0B7_
FN:830,_RNCNvNtNtCseqgZqxOBWDO_5govee7backend5cloud27build_state_from_propertiess0_0B7_
FN:833,_RNCNvNtNtCseqgZqxOBWDO_5govee7backend5cloud27build_state_from_propertiess1_0B7_
FN:834,_RNCNvNtNtCseqgZqxOBWDO_5govee7backend5cloud27build_state_from_propertiess2_0B7_
FN:835,_RNCNvNtNtCseqgZqxOBWDO_5govee7backend5cloud27build_state_from_propertiess3_0B7_
FN:836,_RNCNvNtNtCseqgZqxOBWDO_5govee7backend5cloud27build_state_from_propertiess4_0B7_
FN:839,_RNCNvNtNtCseqgZqxOBWDO_5govee7backend5cloud27build_state_from_propertiess5_0B7_
FN:827,_RNCNvNtNtCseqgZqxOBWDO_5govee7backend5cloud27build_state_from_propertiess_0B7_
FN:1240,_RNCNvXs1_NtNtCseqgZqxOBWDO_5govee7backend5cloudNtB7_12CloudBackendNtNtCs85QQFkKrybG_4core3fmt5Debug3fmt0Bb_
FN:1244,_RNCNvXs1_NtNtCseqgZqxOBWDO_5govee7backend5cloudNtB7_12CloudBackendNtNtCs85QQFkKrybG_4core3fmt5Debug3fmts_0Bb_
FN:543,_RNvMNtNtCseqgZqxOBWDO_5govee7backend5cloudNtB2_12CloudBackend10control_v2
FN:277,_RNvMNtNtCseqgZqxOBWDO_5govee7backend5cloudNtB2_12CloudBackend11retry_delay
FN:395,_RNvMNtNtCseqgZqxOBWDO_5govee7backend5cloudNtB2_12CloudBackend12get_state_v2
FN:177,_RNvMNtNtCseqgZqxOBWDO_5govee7backend5cloudNtB2_12CloudBackend12send_control
FN:254,_RNvMNtNtCseqgZqxOBWDO_5govee7backend5cloudNtB2_12CloudBackend14check_response
FN:520,_RNvMNtNtCseqgZqxOBWDO_5govee7backend5cloudNtB2_12CloudBackend15list_devices_v2
FN:530,_RNvMNtNtCseqgZqxOBWDO_5govee7backend5cloudNtB2_12CloudBackend16get_capabilities
FN:503,_RNvMNtNtCseqgZqxOBWDO_5govee7backend5cloudNtB2_12CloudBackend17with_new_api_base
FN:293,_RNvMNtNtCseqgZqxOBWDO_5govee7backend5cloudNtB2_12CloudBackend20map_new_api_code_err
FN:463,_RNvMNtNtCseqgZqxOBWDO_5govee7backend5cloudNtB2_12CloudBackend21list_diy_scenes_cloud
FN:119,_RNvMNtNtCseqgZqxOBWDO_5govee7backend5cloudNtB2_12CloudBackend3new
FN:160,_RNvMNtNtCseqgZqxOBWDO_5govee7backend5cloudNtB2_12CloudBackend9get_model
FN:777,_RNvMs0_NtNtCseqgZqxOBWDO_5govee7backend5cloudNtB5_8V1Device11into_domain
FN:627,_RNvMs_NtNtCseqgZqxOBWDO_5govee7backend5cloudNtB4_12CloudBackend12v1_get_state
FN:36,_RNvNtNtCseqgZqxOBWDO_5govee7backend5cloud10user_agent
FN:46,_RNvNtNtCseqgZqxOBWDO_5govee7backend5cloud11is_loopback
FN:62,_RNvNtNtCseqgZqxOBWDO_5govee7backend5cloud12build_client
FN:876,_RNvNtNtCseqgZqxOBWDO_5govee7backend5cloud16parse_work_modes
FN:897,_RNvNtNtCseqgZqxOBWDO_5govee7backend5cloud17parse_retry_after
FN:816,_RNvNtNtCseqgZqxOBWDO_5govee7backend5cloud27build_state_from_properties
FN:1239,_RNvXs1_NtNtCseqgZqxOBWDO_5govee7backend5cloudNtB5_12CloudBackendNtNtCs85QQFkKrybG_4core3fmt5Debug3fmt
FN:1233,_RNvXs2_NtNtCseqgZqxOBWDO_5govee7backend5cloudNtB5_12CloudBackendNtB7_12GoveeBackend12backend_type
FN:1436,_RNCNvNtNtNtCseqgZqxOBWDO_5govee7backend5cloud5testss_35set_color_temp_kelvin_zero_rejected0B9_
FN:1482,_RNCNvNtNtNtCseqgZqxOBWDO_5govee7backend5cloud5testss_42control_v2_not_implemented_for_raw_variant0B9_
FN:1446,_RNCNvNtNtNtCseqgZqxOBWDO_5govee7backend5cloud5testss_42set_color_temp_kelvin_above_10000_rejected0B9_
FNDA:2,_RINvMNtNtCsf2i7I5CTk8o_5govee7backend5cloudNtB3_12CloudBackend11new_api_getNtNtCs2gIcK9cuZ92_10serde_json5value5ValueuECs91vKP4uy340_10cloud_mock
FNDA:12,_RINvMNtNtCsf2i7I5CTk8o_5govee7backend5cloudNtB3_12CloudBackend12new_api_postNtNtCs2gIcK9cuZ92_10serde_json5value5ValueB1c_ECs91vKP4uy340_10cloud_mock
FNDA:1,_RINvMNtNtCsf2i7I5CTk8o_5govee7backend5cloudNtB3_12CloudBackend12new_api_postNtNtCs2gIcK9cuZ92_10serde_json5value5ValueNtCs91vKP4uy340_10cloud_mock15ConcretePayloadEB1U_
FNDA:2,_RNCINvMNtNtCsf2i7I5CTk8o_5govee7backend5cloudNtB5_12CloudBackend11new_api_getNtNtCs2gIcK9cuZ92_10serde_json5value5ValueuE0Cs91vKP4uy340_10cloud_mock
FNDA:12,_RNCINvMNtNtCsf2i7I5CTk8o_5govee7backend5cloudNtB5_12CloudBackend12new_api_postNtNtCs2gIcK9cuZ92_10serde_json5value5ValueB1e_E0Cs91vKP4uy340_10cloud_mock
FNDA:1,_RNCINvMNtNtCsf2i7I5CTk8o_5govee7backend5cloudNtB5_12CloudBackend12new_api_postNtNtCs2gIcK9cuZ92_10serde_json5value5ValueNtCs91vKP4uy340_10cloud_mock15ConcretePayloadE0B1W_
FNDA:0,_RNCNCINvMNtNtCsf2i7I5CTk8o_5govee7backend5cloudNtB7_12CloudBackend11new_api_getNtNtCs2gIcK9cuZ92_10serde_json5value5ValueuE00Cs91vKP4uy340_10cloud_mock
FNDA:0,_RNCNCINvMNtNtCsf2i7I5CTk8o_5govee7backend5cloudNtB7_12CloudBackend12new_api_postNtNtCs2gIcK9cuZ92_10serde_json5value5ValueB1g_E00Cs91vKP4uy340_10cloud_mock
FNDA:0,_RNCNCINvMNtNtCsf2i7I5CTk8o_5govee7backend5cloudNtB7_12CloudBackend12new_api_postNtNtCs2gIcK9cuZ92_10serde_json5value5ValueNtCs91vKP4uy340_10cloud_mock15ConcretePayloadE00B1Y_
FNDA:46,_RINvMNtNtCsf2i7I5CTk8o_5govee7backend5cloudNtB3_12CloudBackend11new_api_getINtNtCsdFlNUEO95cG_5alloc3vec3VecNtB3_8V2DeviceEuEB7_
FNDA:20,_RINvMNtNtCsf2i7I5CTk8o_5govee7backend5cloudNtB3_12CloudBackend12new_api_postNtB3_14ControlPayloadNtNtCs2gIcK9cuZ92_10serde_json5value5ValueEB7_
FNDA:1,_RINvMNtNtCsf2i7I5CTk8o_5govee7backend5cloudNtB3_12CloudBackend12new_api_postNtNtCs2gIcK9cuZ92_10serde_json5value5ValueNtB3_17SceneListResponseEB7_
FNDA:1,_RINvMNtNtCsf2i7I5CTk8o_5govee7backend5cloudNtB3_12CloudBackend12new_api_postNtNtCs2gIcK9cuZ92_10serde_json5value5ValueNtB3_20DiySceneListResponseEB7_
FNDA:6,_RINvMNtNtCsf2i7I5CTk8o_5govee7backend5cloudNtB3_12CloudBackend12new_api_postNtNtCs2gIcK9cuZ92_10serde_json5value5ValueNtNCNvB2_12get_state_v2015V2StateResponseEB7_
FNDA:46,_RNCINvMNtNtCsf2i7I5CTk8o_5govee7backend5cloudNtB5_12CloudBackend11new_api_getINtNtCsdFlNUEO95cG_5alloc3vec3VecNtB5_8V2DeviceEuE0B9_
FNDA:20,_RNCINvMNtNtCsf2i7I5CTk8o_5govee7backend5cloudNtB5_12CloudBackend12new_api_postNtB5_14ControlPayloadNtNtCs2gIcK9cuZ92_10serde_json5value5ValueE0B9_
FNDA:1,_RNCINvMNtNtCsf2i7I5CTk8o_5govee7backend5cloudNtB5_12CloudBackend12new_api_postNtNtCs2gIcK9cuZ92_10serde_json5value5ValueNtB5_17SceneListResponseE0B9_
FNDA:1,_RNCINvMNtNtCsf2i7I5CTk8o_5govee7backend5cloudNtB5_12CloudBackend12new_api_postNtNtCs2gIcK9cuZ92_10serde_json5value5ValueNtB5_20DiySceneListResponseE0B9_
FNDA:6,_RNCINvMNtNtCsf2i7I5CTk8o_5govee7backend5cloudNtB5_12CloudBackend12new_api_postNtNtCs2gIcK9cuZ92_10serde_json5value5ValueNtNCNvB4_12get_state_v2015V2StateResponseE0B9_
FNDA:0,_RNCNCINvMNtNtCsf2i7I5CTk8o_5govee7backend5cloudNtB7_12CloudBackend11new_api_getINtNtCsdFlNUEO95cG_5alloc3vec3VecNtB7_8V2DeviceEuE00Bb_
FNDA:0,_RNCNCINvMNtNtCsf2i7I5CTk8o_5govee7backend5cloudNtB7_12CloudBackend12new_api_postNtB7_14ControlPayloadNtNtCs2gIcK9cuZ92_10serde_json5value5ValueE00Bb_
FNDA:0,_RNCNCINvMNtNtCsf2i7I5CTk8o_5govee7backend5cloudNtB7_12CloudBackend12new_api_postNtNtCs2gIcK9cuZ92_10serde_json5value5ValueNtB7_17SceneListResponseE00Bb_
FNDA:0,_RNCNCINvMNtNtCsf2i7I5CTk8o_5govee7backend5cloudNtB7_12CloudBackend12new_api_postNtNtCs2gIcK9cuZ92_10serde_json5value5ValueNtB7_20DiySceneListResponseE00Bb_
FNDA:0,_RNCNCINvMNtNtCsf2i7I5CTk8o_5govee7backend5cloudNtB7_12CloudBackend12new_api_postNtNtCs2gIcK9cuZ92_10serde_json5value5ValueNtNCNvB6_12get_state_v2015V2StateResponseE00Bb_
FNDA:10,_RNCNCNCNCNvXs2_NtNtCsf2i7I5CTk8o_5govee7backend5cloudNtBd_12CloudBackendNtBf_12GoveeBackend12list_devices0000Bh_
FNDA:0,_RNCNCNCNCNvXs2_NtNtCsf2i7I5CTk8o_5govee7backend5cloudNtBd_12CloudBackendNtBf_12GoveeBackend12list_devices00s0_00Bh_
FNDA:2,_RNCNCNCNvMNtNtCsf2i7I5CTk8o_5govee7backend5cloudNtB8_12CloudBackend21list_diy_scenes_cloud000Bc_
FNDA:2,_RNCNCNCNvXs2_NtNtCsf2i7I5CTk8o_5govee7backend5cloudNtBb_12CloudBackendNtBd_12GoveeBackend11list_scenes000Bf_
FNDA:2,_RNCNCNCNvXs2_NtNtCsf2i7I5CTk8o_5govee7backend5cloudNtBb_12CloudBackendNtBd_12GoveeBackend11list_scenes00s_0Bf_
FNDA:10,_RNCNCNCNvXs2_NtNtCsf2i7I5CTk8o_5govee7backend5cloudNtBb_12CloudBackendNtBd_12GoveeBackend12list_devices000Bf_
FNDA:46,_RNCNCNCNvXs2_NtNtCsf2i7I5CTk8o_5govee7backend5cloudNtBb_12CloudBackendNtBd_12GoveeBackend12list_devices00s0_0Bf_
FNDA:58,_RNCNCNCNvXs2_NtNtCsf2i7I5CTk8o_5govee7backend5cloudNtBb_12CloudBackendNtBd_12GoveeBackend12list_devices00s1_0Bf_
FNDA:0,_RNCNCNCNvXs2_NtNtCsf2i7I5CTk8o_5govee7backend5cloudNtBb_12CloudBackendNtBd_12GoveeBackend12list_devices00s2_0Bf_
FNDA:10,_RNCNCNCNvXs2_NtNtCsf2i7I5CTk8o_5govee7backend5cloudNtBb_12CloudBackendNtBd_12GoveeBackend12list_devices00s3_0Bf_
FNDA:10,_RNCNCNCNvXs2_NtNtCsf2i7I5CTk8o_5govee7backend5cloudNtBb_12CloudBackendNtBd_12GoveeBackend12list_devices00s4_0Bf_
FNDA:15,_RNCNCNCNvXs2_NtNtCsf2i7I5CTk8o_5govee7backend5cloudNtBb_12CloudBackendNtBd_12GoveeBackend12list_devices00s5_0Bf_
FNDA:0,_RNCNCNCNvXs2_NtNtCsf2i7I5CTk8o_5govee7backend5cloudNtBb_12CloudBackendNtBd_12GoveeBackend12list_devices00s6_0Bf_
FNDA:0,_RNCNCNCNvXs2_NtNtCsf2i7I5CTk8o_5govee7backend5cloudNtBb_12CloudBackendNtBd_12GoveeBackend12list_devices00s_0Bf_
FNDA:2,_RNCNCNCNvXs2_NtNtCsf2i7I5CTk8o_5govee7backend5cloudNtBb_12CloudBackendNtBd_12GoveeBackend15list_work_modes000Bf_
FNDA:0,_RNCNCNvMNtNtCsf2i7I5CTk8o_5govee7backend5cloudNtB6_12CloudBackend12send_control00Ba_
FNDA:0,_RNCNCNvMNtNtCsf2i7I5CTk8o_5govee7backend5cloudNtB6_12CloudBackend14check_response00Ba_
FNDA:2,_RNCNCNvMNtNtCsf2i7I5CTk8o_5govee7backend5cloudNtB6_12CloudBackend21list_diy_scenes_cloud00Ba_
FNDA:2,_RNCNCNvMNtNtCsf2i7I5CTk8o_5govee7backend5cloudNtB6_12CloudBackend21list_diy_scenes_cloud0s_0Ba_
FNDA:0,_RNCNCNvMs_NtNtCsf2i7I5CTk8o_5govee7backend5cloudNtB8_12CloudBackend12v1_get_state00Bc_
FNDA:2,_RNCNCNvNtNtCsf2i7I5CTk8o_5govee7backend5cloud16parse_work_modes00B9_
FNDA:21,_RNCNvMNtNtCsf2i7I5CTk8o_5govee7backend5cloudNtB4_12CloudBackend10control_v20B8_
FNDA:7,_RNCNvMNtNtCsf2i7I5CTk8o_5govee7backend5cloudNtB4_12CloudBackend12get_state_v20B8_
FNDA:13,_RNCNvMNtNtCsf2i7I5CTk8o_5govee7backend5cloudNtB4_12CloudBackend12send_control0B8_
FNDA:160,_RNCNvMNtNtCsf2i7I5CTk8o_5govee7backend5cloudNtB4_12CloudBackend14check_response0B8_
FNDA:46,_RNCNvMNtNtCsf2i7I5CTk8o_5govee7backend5cloudNtB4_12CloudBackend15list_devices_v20B8_
FNDA:0,_RNCNvMNtNtCsf2i7I5CTk8o_5govee7backend5cloudNtB4_12CloudBackend16get_capabilities0B8_
FNDA:0,_RNCNvMNtNtCsf2i7I5CTk8o_5govee7backend5cloudNtB4_12CloudBackend17with_new_api_base0B8_
FNDA:3,_RNCNvMNtNtCsf2i7I5CTk8o_5govee7backend5cloudNtB4_12CloudBackend21list_diy_scenes_cloud0B8_
FNDA:0,_RNCNvMNtNtCsf2i7I5CTk8o_5govee7backend5cloudNtB4_12CloudBackend3new0B8_
FNDA:0,_RNCNvMNtNtCsf2i7I5CTk8o_5govee7backend5cloudNtB4_12CloudBackend3news0_0B8_
FNDA:0,_RNCNvMNtNtCsf2i7I5CTk8o_5govee7backend5cloudNtB4_12CloudBackend3news1_0B8_
FNDA:15,_RNCNvMNtNtCsf2i7I5CTk8o_5govee7backend5cloudNtB4_12CloudBackend3news_0B8_
FNDA:0,_RNCNvMNtNtCsf2i7I5CTk8o_5govee7backend5cloudNtB4_12CloudBackend9get_model0B8_
FNDA:6,_RNCNvMNtNtCsf2i7I5CTk8o_5govee7backend5cloudNtB4_12CloudBackend9get_models_0B8_
FNDA:5,_RNCNvMs_NtNtCsf2i7I5CTk8o_5govee7backend5cloudNtB6_12CloudBackend12v1_get_state0Ba_
FNDA:0,_RNCNvNtNtCsf2i7I5CTk8o_5govee7backend5cloud11is_loopback0B7_
FNDA:0,_RNCNvNtNtCsf2i7I5CTk8o_5govee7backend5cloud11is_loopbacks_0B7_
FNDA:0,_RNCNvNtNtCsf2i7I5CTk8o_5govee7backend5cloud12build_client0B7_
FNDA:2,_RNCNvNtNtCsf2i7I5CTk8o_5govee7backend5cloud16parse_work_modes0B7_
FNDA:10,_RNCNvNtNtCsf2i7I5CTk8o_5govee7backend5cloud17parse_retry_after0B7_
FNDA:10,_RNCNvNtNtCsf2i7I5CTk8o_5govee7backend5cloud17parse_retry_afters_0B7_
FNDA:3,_RNCNvNtNtCsf2i7I5CTk8o_5govee7backend5cloud27build_state_from_properties0B7_
FNDA:3,_RNCNvNtNtCsf2i7I5CTk8o_5govee7backend5cloud27build_state_from_propertiess0_0B7_
FNDA:3,_RNCNvNtNtCsf2i7I5CTk8o_5govee7backend5cloud27build_state_from_propertiess1_0B7_
FNDA:3,_RNCNvNtNtCsf2i7I5CTk8o_5govee7backend5cloud27build_state_from_propertiess2_0B7_
FNDA:3,_RNCNvNtNtCsf2i7I5CTk8o_5govee7backend5cloud27build_state_from_propertiess3_0B7_
FNDA:3,_RNCNvNtNtCsf2i7I5CTk8o_5govee7backend5cloud27build_state_from_propertiess4_0B7_
FNDA:2,_RNCNvNtNtCsf2i7I5CTk8o_5govee7backend5cloud27build_state_from_propertiess5_0B7_
FNDA:3,_RNCNvNtNtCsf2i7I5CTk8o_5govee7backend5cloud27build_state_from_propertiess_0B7_
FNDA:0,_RNCNvXs1_NtNtCsf2i7I5CTk8o_5govee7backend5cloudNtB7_12CloudBackendNtNtCs85QQFkKrybG_4core3fmt5Debug3fmt0Bb_
FNDA:0,_RNCNvXs1_NtNtCsf2i7I5CTk8o_5govee7backend5cloudNtB7_12CloudBackendNtNtCs85QQFkKrybG_4core3fmt5Debug3fmts_0Bb_
FNDA:21,_RNvMNtNtCsf2i7I5CTk8o_5govee7backend5cloudNtB2_12CloudBackend10control_v2
FNDA:12,_RNvMNtNtCsf2i7I5CTk8o_5govee7backend5cloudNtB2_12CloudBackend11retry_delay
FNDA:7,_RNvMNtNtCsf2i7I5CTk8o_5govee7backend5cloudNtB2_12CloudBackend12get_state_v2
FNDA:13,_RNvMNtNtCsf2i7I5CTk8o_5govee7backend5cloudNtB2_12CloudBackend12send_control
FNDA:160,_RNvMNtNtCsf2i7I5CTk8o_5govee7backend5cloudNtB2_12CloudBackend14check_response
FNDA:46,_RNvMNtNtCsf2i7I5CTk8o_5govee7backend5cloudNtB2_12CloudBackend15list_devices_v2
FNDA:10,_RNvMNtNtCsf2i7I5CTk8o_5govee7backend5cloudNtB2_12CloudBackend16get_capabilities
FNDA:64,_RNvMNtNtCsf2i7I5CTk8o_5govee7backend5cloudNtB2_12CloudBackend17with_new_api_base
FNDA:6,_RNvMNtNtCsf2i7I5CTk8o_5govee7backend5cloudNtB2_12CloudBackend20map_new_api_code_err
FNDA:3,_RNvMNtNtCsf2i7I5CTk8o_5govee7backend5cloudNtB2_12CloudBackend21list_diy_scenes_cloud
FNDA:64,_RNvMNtNtCsf2i7I5CTk8o_5govee7backend5cloudNtB2_12CloudBackend3new
FNDA:50,_RNvMNtNtCsf2i7I5CTk8o_5govee7backend5cloudNtB2_12CloudBackend9get_model
FNDA:68,_RNvMs0_NtNtCsf2i7I5CTk8o_5govee7backend5cloudNtB5_8V1Device11into_domain
FNDA:5,_RNvMs_NtNtCsf2i7I5CTk8o_5govee7backend5cloudNtB4_12CloudBackend12v1_get_state
FNDA:64,_RNvNtNtCsf2i7I5CTk8o_5govee7backend5cloud10user_agent
FNDA:113,_RNvNtNtCsf2i7I5CTk8o_5govee7backend5cloud11is_loopback
FNDA:64,_RNvNtNtCsf2i7I5CTk8o_5govee7backend5cloud12build_client
FNDA:1,_RNvNtNtCsf2i7I5CTk8o_5govee7backend5cloud16parse_work_modes
FNDA:12,_RNvNtNtCsf2i7I5CTk8o_5govee7backend5cloud17parse_retry_after
FNDA:3,_RNvNtNtCsf2i7I5CTk8o_5govee7backend5cloud27build_state_from_properties
FNDA:0,_RNvXs1_NtNtCsf2i7I5CTk8o_5govee7backend5cloudNtB5_12CloudBackendNtNtCs85QQFkKrybG_4core3fmt5Debug3fmt
FNDA:0,_RNvXs2_NtNtCsf2i7I5CTk8o_5govee7backend5cloudNtB5_12CloudBackendNtB7_12GoveeBackend12backend_type
FNDA:1,_RNvNtNtNtCseqgZqxOBWDO_5govee7backend5cloud5testss_19rejects_invalid_url
FNDA:1,_RNvNtNtNtCseqgZqxOBWDO_5govee7backend5cloud5testss_20allows_http_loopback
FNDA:1,_RNvNtNtNtCseqgZqxOBWDO_5govee7backend5cloud5testss_21debug_redacts_api_key
FNDA:1,_RNvNtNtNtCseqgZqxOBWDO_5govee7backend5cloud5testss_21v1_device_into_domain
FNDA:1,_RNvNtNtNtCseqgZqxOBWDO_5govee7backend5cloud5testss_22accepts_https_base_url
FNDA:1,_RNvNtNtNtCseqgZqxOBWDO_5govee7backend5cloud5testss_24user_agent_crlf_rejected
FNDA:1,_RNvNtNtNtCseqgZqxOBWDO_5govee7backend5cloud5testss_25allows_http_ipv6_loopback
FNDA:1,_RNvNtNtNtCseqgZqxOBWDO_5govee7backend5cloud5testss_25default_base_url_is_https
FNDA:1,_RNvNtNtNtCseqgZqxOBWDO_5govee7backend5cloud5testss_25rejects_http_non_loopback
FNDA:1,_RNvNtNtNtCseqgZqxOBWDO_5govee7backend5cloud5testss_25trailing_slash_normalized
FNDA:1,_RNvNtNtNtCseqgZqxOBWDO_5govee7backend5cloud5testss_26build_state_all_properties
FNDA:1,_RNvNtNtNtCseqgZqxOBWDO_5govee7backend5cloud5testss_26custom_user_agent_accepted
FNDA:1,_RNvNtNtNtCseqgZqxOBWDO_5govee7backend5cloud5testss_27user_agent_contains_version
FNDA:1,_RNvNtNtNtCseqgZqxOBWDO_5govee7backend5cloud5testss_28build_state_offline_is_stale
FNDA:1,_RNvNtNtNtCseqgZqxOBWDO_5govee7backend5cloud5testss_29build_state_clamps_brightness
FNDA:1,_RNvNtNtNtCseqgZqxOBWDO_5govee7backend5cloud5testss_29user_agent_null_byte_rejected
FNDA:1,_RNvNtNtNtCseqgZqxOBWDO_5govee7backend5cloud5testss_34build_state_clamps_color_above_255
FNDA:1,_RNvNtNtNtCseqgZqxOBWDO_5govee7backend5cloud5testss_34map_new_api_code_err_overflows_u16
FNDA:1,_RNvNtNtNtCseqgZqxOBWDO_5govee7backend5cloud5testss_35set_color_temp_kelvin_zero_rejected
FNDA:1,_RNvNtNtNtCseqgZqxOBWDO_5govee7backend5cloud5testss_35v1_device_invalid_mac_returns_error
FNDA:1,_RNvNtNtNtCseqgZqxOBWDO_5govee7backend5cloud5testss_37with_new_api_base_rejects_invalid_url
FNDA:1,_RNvNtNtNtCseqgZqxOBWDO_5govee7backend5cloud5testss_38build_state_unknown_properties_ignored
FNDA:1,_RNvNtNtNtCseqgZqxOBWDO_5govee7backend5cloud5testss_39build_state_clamps_brightness_above_255
FNDA:1,_RNvNtNtNtCseqgZqxOBWDO_5govee7backend5cloud5testss_40get_capabilities_returns_none_when_empty
FNDA:1,_RNvNtNtNtCseqgZqxOBWDO_5govee7backend5cloud5testss_42control_v2_not_implemented_for_raw_variant
FNDA:1,_RNvNtNtNtCseqgZqxOBWDO_5govee7backend5cloud5testss_42set_color_temp_kelvin_above_10000_rejected
FNDA:0,_RINvMNtNtCseqgZqxOBWDO_5govee7backend5cloudNtB3_12CloudBackend11new_api_getINtNtCsdFlNUEO95cG_5alloc3vec3VecNtB3_8V2DeviceEuEB7_
FNDA:0,_RINvMNtNtCseqgZqxOBWDO_5govee7backend5cloudNtB3_12CloudBackend12new_api_postNtB3_14ControlPayloadNtNtCs2gIcK9cuZ92_10serde_json5value5ValueEB7_
FNDA:0,_RINvMNtNtCseqgZqxOBWDO_5govee7backend5cloudNtB3_12CloudBackend12new_api_postNtNtCs2gIcK9cuZ92_10serde_json5value5ValueNtB3_17SceneListResponseEB7_
FNDA:0,_RINvMNtNtCseqgZqxOBWDO_5govee7backend5cloudNtB3_12CloudBackend12new_api_postNtNtCs2gIcK9cuZ92_10serde_json5value5ValueNtB3_20DiySceneListResponseEB7_
FNDA:0,_RINvMNtNtCseqgZqxOBWDO_5govee7backend5cloudNtB3_12CloudBackend12new_api_postNtNtCs2gIcK9cuZ92_10serde_json5value5ValueNtNCNvB2_12get_state_v2015V2StateResponseEB7_
FNDA:0,_RNCINvMNtNtCseqgZqxOBWDO_5govee7backend5cloudNtB5_12CloudBackend11new_api_getINtNtCsdFlNUEO95cG_5alloc3vec3VecNtB5_8V2DeviceEuE0B9_
FNDA:0,_RNCINvMNtNtCseqgZqxOBWDO_5govee7backend5cloudNtB5_12CloudBackend12new_api_postNtB5_14ControlPayloadNtNtCs2gIcK9cuZ92_10serde_json5value5ValueE0B9_
FNDA:0,_RNCINvMNtNtCseqgZqxOBWDO_5govee7backend5cloudNtB5_12CloudBackend12new_api_postNtNtCs2gIcK9cuZ92_10serde_json5value5ValueNtB5_17SceneListResponseE0B9_
FNDA:0,_RNCINvMNtNtCseqgZqxOBWDO_5govee7backend5cloudNtB5_12CloudBackend12new_api_postNtNtCs2gIcK9cuZ92_10serde_json5value5ValueNtB5_20DiySceneListResponseE0B9_
FNDA:0,_RNCINvMNtNtCseqgZqxOBWDO_5govee7backend5cloudNtB5_12CloudBackend12new_api_postNtNtCs2gIcK9cuZ92_10serde_json5value5ValueNtNCNvB4_12get_state_v2015V2StateResponseE0B9_
FNDA:0,_RNCNCINvMNtNtCseqgZqxOBWDO_5govee7backend5cloudNtB7_12CloudBackend11new_api_getINtNtCsdFlNUEO95cG_5alloc3vec3VecNtB7_8V2DeviceEuE00Bb_
FNDA:0,_RNCNCINvMNtNtCseqgZqxOBWDO_5govee7backend5cloudNtB7_12CloudBackend12new_api_postNtB7_14ControlPayloadNtNtCs2gIcK9cuZ92_10serde_json5value5ValueE00Bb_
FNDA:0,_RNCNCINvMNtNtCseqgZqxOBWDO_5govee7backend5cloudNtB7_12CloudBackend12new_api_postNtNtCs2gIcK9cuZ92_10serde_json5value5ValueNtB7_17SceneListResponseE00Bb_
FNDA:0,_RNCNCINvMNtNtCseqgZqxOBWDO_5govee7backend5cloudNtB7_12CloudBackend12new_api_postNtNtCs2gIcK9cuZ92_10serde_json5value5ValueNtB7_20DiySceneListResponseE00Bb_
FNDA:0,_RNCNCINvMNtNtCseqgZqxOBWDO_5govee7backend5cloudNtB7_12CloudBackend12new_api_postNtNtCs2gIcK9cuZ92_10serde_json5value5ValueNtNCNvB6_12get_state_v2015V2StateResponseE00Bb_
FNDA:0,_RNCNCNCNCNvXs2_NtNtCseqgZqxOBWDO_5govee7backend5cloudNtBd_12CloudBackendNtBf_12GoveeBackend12list_devices0000Bh_
FNDA:0,_RNCNCNCNCNvXs2_NtNtCseqgZqxOBWDO_5govee7backend5cloudNtBd_12CloudBackendNtBf_12GoveeBackend12list_devices00s0_00Bh_
FNDA:0,_RNCNCNCNvMNtNtCseqgZqxOBWDO_5govee7backend5cloudNtB8_12CloudBackend21list_diy_scenes_cloud000Bc_
FNDA:0,_RNCNCNCNvXs2_NtNtCseqgZqxOBWDO_5govee7backend5cloudNtBb_12CloudBackendNtBd_12GoveeBackend11list_scenes000Bf_
FNDA:0,_RNCNCNCNvXs2_NtNtCseqgZqxOBWDO_5govee7backend5cloudNtBb_12CloudBackendNtBd_12GoveeBackend11list_scenes00s_0Bf_
FNDA:0,_RNCNCNCNvXs2_NtNtCseqgZqxOBWDO_5govee7backend5cloudNtBb_12CloudBackendNtBd_12GoveeBackend12list_devices000Bf_
FNDA:0,_RNCNCNCNvXs2_NtNtCseqgZqxOBWDO_5govee7backend5cloudNtBb_12CloudBackendNtBd_12GoveeBackend12list_devices00s0_0Bf_
FNDA:0,_RNCNCNCNvXs2_NtNtCseqgZqxOBWDO_5govee7backend5cloudNtBb_12CloudBackendNtBd_12GoveeBackend12list_devices00s1_0Bf_
FNDA:0,_RNCNCNCNvXs2_NtNtCseqgZqxOBWDO_5govee7backend5cloudNtBb_12CloudBackendNtBd_12GoveeBackend12list_devices00s2_0Bf_
FNDA:0,_RNCNCNCNvXs2_NtNtCseqgZqxOBWDO_5govee7backend5cloudNtBb_12CloudBackendNtBd_12GoveeBackend12list_devices00s3_0Bf_
FNDA:0,_RNCNCNCNvXs2_NtNtCseqgZqxOBWDO_5govee7backend5cloudNtBb_12CloudBackendNtBd_12GoveeBackend12list_devices00s4_0Bf_
FNDA:0,_RNCNCNCNvXs2_NtNtCseqgZqxOBWDO_5govee7backend5cloudNtBb_12CloudBackendNtBd_12GoveeBackend12list_devices00s5_0Bf_
FNDA:0,_RNCNCNCNvXs2_NtNtCseqgZqxOBWDO_5govee7backend5cloudNtBb_12CloudBackendNtBd_12GoveeBackend12list_devices00s6_0Bf_
FNDA:0,_RNCNCNCNvXs2_NtNtCseqgZqxOBWDO_5govee7backend5cloudNtBb_12CloudBackendNtBd_12GoveeBackend12list_devices00s_0Bf_
FNDA:0,_RNCNCNCNvXs2_NtNtCseqgZqxOBWDO_5govee7backend5cloudNtBb_12CloudBackendNtBd_12GoveeBackend15list_work_modes000Bf_
FNDA:0,_RNCNCNvMNtNtCseqgZqxOBWDO_5govee7backend5cloudNtB6_12CloudBackend12send_control00Ba_
FNDA:0,_RNCNCNvMNtNtCseqgZqxOBWDO_5govee7backend5cloudNtB6_12CloudBackend14check_response00Ba_
FNDA:0,_RNCNCNvMNtNtCseqgZqxOBWDO_5govee7backend5cloudNtB6_12CloudBackend21list_diy_scenes_cloud00Ba_
FNDA:0,_RNCNCNvMNtNtCseqgZqxOBWDO_5govee7backend5cloudNtB6_12CloudBackend21list_diy_scenes_cloud0s_0Ba_
FNDA:0,_RNCNCNvMs_NtNtCseqgZqxOBWDO_5govee7backend5cloudNtB8_12CloudBackend12v1_get_state00Bc_
FNDA:0,_RNCNCNvNtNtCseqgZqxOBWDO_5govee7backend5cloud16parse_work_modes00B9_
FNDA:1,_RNCNvMNtNtCseqgZqxOBWDO_5govee7backend5cloudNtB4_12CloudBackend10control_v20B8_
FNDA:0,_RNCNvMNtNtCseqgZqxOBWDO_5govee7backend5cloudNtB4_12CloudBackend12get_state_v20B8_
FNDA:0,_RNCNvMNtNtCseqgZqxOBWDO_5govee7backend5cloudNtB4_12CloudBackend12send_control0B8_
FNDA:0,_RNCNvMNtNtCseqgZqxOBWDO_5govee7backend5cloudNtB4_12CloudBackend14check_response0B8_
FNDA:0,_RNCNvMNtNtCseqgZqxOBWDO_5govee7backend5cloudNtB4_12CloudBackend15list_devices_v20B8_
FNDA:0,_RNCNvMNtNtCseqgZqxOBWDO_5govee7backend5cloudNtB4_12CloudBackend16get_capabilities0B8_
FNDA:1,_RNCNvMNtNtCseqgZqxOBWDO_5govee7backend5cloudNtB4_12CloudBackend17with_new_api_base0B8_
FNDA:0,_RNCNvMNtNtCseqgZqxOBWDO_5govee7backend5cloudNtB4_12CloudBackend21list_diy_scenes_cloud0B8_
FNDA:18,_RNCNvMNtNtCseqgZqxOBWDO_5govee7backend5cloudNtB4_12CloudBackend3new0B8_
FNDA:1,_RNCNvMNtNtCseqgZqxOBWDO_5govee7backend5cloudNtB4_12CloudBackend3news0_0B8_
FNDA:0,_RNCNvMNtNtCseqgZqxOBWDO_5govee7backend5cloudNtB4_12CloudBackend3news1_0B8_
FNDA:8,_RNCNvMNtNtCseqgZqxOBWDO_5govee7backend5cloudNtB4_12CloudBackend3news_0B8_
FNDA:0,_RNCNvMNtNtCseqgZqxOBWDO_5govee7backend5cloudNtB4_12CloudBackend9get_model0B8_
FNDA:0,_RNCNvMNtNtCseqgZqxOBWDO_5govee7backend5cloudNtB4_12CloudBackend9get_models_0B8_
FNDA:0,_RNCNvMs_NtNtCseqgZqxOBWDO_5govee7backend5cloudNtB6_12CloudBackend12v1_get_state0Ba_
FNDA:0,_RNCNvNtNtCseqgZqxOBWDO_5govee7backend5cloud11is_loopback0B7_
FNDA:0,_RNCNvNtNtCseqgZqxOBWDO_5govee7backend5cloud11is_loopbacks_0B7_
FNDA:1,_RNCNvNtNtCseqgZqxOBWDO_5govee7backend5cloud12build_client0B7_
FNDA:0,_RNCNvNtNtCseqgZqxOBWDO_5govee7backend5cloud16parse_work_modes0B7_
FNDA:0,_RNCNvNtNtCseqgZqxOBWDO_5govee7backend5cloud17parse_retry_after0B7_
FNDA:0,_RNCNvNtNtCseqgZqxOBWDO_5govee7backend5cloud17parse_retry_afters_0B7_
FNDA:2,_RNCNvNtNtCseqgZqxOBWDO_5govee7backend5cloud27build_state_from_properties0B7_
FNDA:4,_RNCNvNtNtCseqgZqxOBWDO_5govee7backend5cloud27build_state_from_propertiess0_0B7_
FNDA:2,_RNCNvNtNtCseqgZqxOBWDO_5govee7backend5cloud27build_state_from_propertiess1_0B7_
FNDA:2,_RNCNvNtNtCseqgZqxOBWDO_5govee7backend5cloud27build_state_from_propertiess2_0B7_
FNDA:2,_RNCNvNtNtCseqgZqxOBWDO_5govee7backend5cloud27build_state_from_propertiess3_0B7_
FNDA:2,_RNCNvNtNtCseqgZqxOBWDO_5govee7backend5cloud27build_state_from_propertiess4_0B7_
FNDA:1,_RNCNvNtNtCseqgZqxOBWDO_5govee7backend5cloud27build_state_from_propertiess5_0B7_
FNDA:2,_RNCNvNtNtCseqgZqxOBWDO_5govee7backend5cloud27build_state_from_propertiess_0B7_
FNDA:1,_RNCNvXs1_NtNtCseqgZqxOBWDO_5govee7backend5cloudNtB7_12CloudBackendNtNtCs85QQFkKrybG_4core3fmt5Debug3fmt0Bb_
FNDA:1,_RNCNvXs1_NtNtCseqgZqxOBWDO_5govee7backend5cloudNtB7_12CloudBackendNtNtCs85QQFkKrybG_4core3fmt5Debug3fmts_0Bb_
FNDA:1,_RNvMNtNtCseqgZqxOBWDO_5govee7backend5cloudNtB2_12CloudBackend10control_v2
FNDA:0,_RNvMNtNtCseqgZqxOBWDO_5govee7backend5cloudNtB2_12CloudBackend11retry_delay
FNDA:0,_RNvMNtNtCseqgZqxOBWDO_5govee7backend5cloudNtB2_12CloudBackend12get_state_v2
FNDA:0,_RNvMNtNtCseqgZqxOBWDO_5govee7backend5cloudNtB2_12CloudBackend12send_control
FNDA:0,_RNvMNtNtCseqgZqxOBWDO_5govee7backend5cloudNtB2_12CloudBackend14check_response
FNDA:0,_RNvMNtNtCseqgZqxOBWDO_5govee7backend5cloudNtB2_12CloudBackend15list_devices_v2
FNDA:1,_RNvMNtNtCseqgZqxOBWDO_5govee7backend5cloudNtB2_12CloudBackend16get_capabilities
FNDA:1,_RNvMNtNtCseqgZqxOBWDO_5govee7backend5cloudNtB2_12CloudBackend17with_new_api_base
FNDA:1,_RNvMNtNtCseqgZqxOBWDO_5govee7backend5cloudNtB2_12CloudBackend20map_new_api_code_err
FNDA:0,_RNvMNtNtCseqgZqxOBWDO_5govee7backend5cloudNtB2_12CloudBackend21list_diy_scenes_cloud
FNDA:18,_RNvMNtNtCseqgZqxOBWDO_5govee7backend5cloudNtB2_12CloudBackend3new
FNDA:1,_RNvMNtNtCseqgZqxOBWDO_5govee7backend5cloudNtB2_12CloudBackend9get_model
FNDA:2,_RNvMs0_NtNtCseqgZqxOBWDO_5govee7backend5cloudNtB5_8V1Device11into_domain
FNDA:0,_RNvMs_NtNtCseqgZqxOBWDO_5govee7backend5cloudNtB4_12CloudBackend12v1_get_state
FNDA:14,_RNvNtNtCseqgZqxOBWDO_5govee7backend5cloud10user_agent
FNDA:5,_RNvNtNtCseqgZqxOBWDO_5govee7backend5cloud11is_loopback
FNDA:14,_RNvNtNtCseqgZqxOBWDO_5govee7backend5cloud12build_client
FNDA:0,_RNvNtNtCseqgZqxOBWDO_5govee7backend5cloud16parse_work_modes
FNDA:0,_RNvNtNtCseqgZqxOBWDO_5govee7backend5cloud17parse_retry_after
FNDA:6,_RNvNtNtCseqgZqxOBWDO_5govee7backend5cloud27build_state_from_properties
FNDA:1,_RNvXs1_NtNtCseqgZqxOBWDO_5govee7backend5cloudNtB5_12CloudBackendNtNtCs85QQFkKrybG_4core3fmt5Debug3fmt
FNDA:0,_RNvXs2_NtNtCseqgZqxOBWDO_5govee7backend5cloudNtB5_12CloudBackendNtB7_12GoveeBackend12backend_type
FNDA:1,_RNCNvNtNtNtCseqgZqxOBWDO_5govee7backend5cloud5testss_35set_color_temp_kelvin_zero_rejected0B9_
FNDA:1,_RNCNvNtNtNtCseqgZqxOBWDO_5govee7backend5cloud5testss_42control_v2_not_implemented_for_raw_variant0B9_
FNDA:1,_RNCNvNtNtNtCseqgZqxOBWDO_5govee7backend5cloud5testss_42set_color_temp_kelvin_above_10000_rejected0B9_
FNF:109
FNH:94
DA:36,78
DA:37,78
DA:38,78
DA:46,118
DA:47,118
DA:48,118
DA:51,1
DA:52,1
DA:53,1
DA:54,1
DA:55,1
DA:56,1
DA:57,0
DA:59,118
DA:62,78
DA:63,78
DA:64,78
DA:65,78
DA:66,78
DA:67,78
DA:68,78
DA:69,78
DA:119,82
DA:120,82
DA:121,82
DA:122,82
DA:123,82
DA:125,82
DA:126,18
DA:128,2
DA:129,2
DA:130,2
DA:131,80
DA:133,80
DA:134,80
DA:135,80
DA:136,79
DA:137,1
DA:138,1
DA:139,1
DA:140,78
DA:141,78
DA:142,78
DA:143,78
DA:144,78
DA:145,78
DA:146,78
DA:147,78
DA:148,78
DA:149,78
DA:150,78
DA:151,78
DA:152,78
DA:153,78
DA:154,82
DA:160,51
DA:161,51
DA:162,51
DA:163,51
DA:164,51
DA:165,51
DA:166,6
DA:167,6
DA:168,6
DA:169,6
DA:170,6
DA:171,51
DA:177,13
DA:178,13
DA:179,13
DA:180,13
DA:181,13
DA:182,13
DA:183,13
DA:184,12
DA:185,12
DA:186,12
DA:187,12
DA:189,12
DA:190,12
DA:191,12
DA:192,12
DA:193,12
DA:194,12
DA:198,21
DA:199,21
DA:200,21
DA:201,21
DA:202,21
DA:203,21
DA:204,21
DA:205,21
DA:207,21
DA:208,21
DA:209,0
DA:210,0
DA:211,0
DA:212,0
DA:214,0
DA:215,0
DA:216,0
DA:217,0
DA:218,0
DA:222,21
DA:223,9
DA:224,9
DA:225,9
DA:226,1
DA:227,1
DA:228,1
DA:229,1
DA:230,8
DA:231,8
DA:232,8
DA:234,12
DA:235,12
DA:236,12
DA:238,9
DA:239,9
DA:240,9
DA:241,3
DA:242,3
DA:247,0
DA:248,13
DA:254,160
DA:255,160
DA:256,160
DA:257,12
DA:258,12
DA:259,12
DA:260,148
DA:261,148
DA:262,67
DA:263,67
DA:264,67
DA:265,67
DA:266,67
DA:267,67
DA:268,67
DA:269,67
DA:270,81
DA:271,81
DA:272,160
DA:277,12
DA:278,12
DA:279,8
DA:280,8
DA:281,8
DA:283,4
DA:285,4
DA:286,4
DA:288,0
DA:290,12
DA:293,7
DA:294,7
DA:295,2
DA:296,2
DA:297,2
DA:298,2
DA:299,1
DA:300,1
DA:301,1
DA:302,1
DA:303,1
DA:304,1
DA:305,1
DA:306,1
DA:307,1
DA:308,1
DA:309,1
DA:310,2
DA:311,1
DA:312,1
DA:313,1
DA:314,1
DA:315,1
DA:316,1
DA:317,1
DA:318,1
DA:321,7
DA:328,41
DA:329,41
DA:330,41
DA:331,41
DA:332,41
DA:333,41
DA:334,0
DA:335,0
DA:336,41
DA:337,41
DA:338,41
DA:339,41
DA:340,41
DA:341,41
DA:342,41
DA:343,41
DA:344,41
DA:345,41
DA:346,41
DA:348,41
DA:349,19
DA:350,19
DA:352,13
DA:353,13
DA:354,13
DA:356,6
DA:358,41
DA:364,48
DA:365,48
DA:366,48
DA:367,48
DA:368,48
DA:369,48
DA:370,0
DA:371,0
DA:372,48
DA:373,48
DA:374,0
DA:375,48
DA:376,48
DA:378,48
DA:379,11
DA:380,11
DA:382,11
DA:383,11
DA:384,11
DA:386,0
DA:388,48
DA:395,7
DA:396,7
DA:407,6
DA:408,6
DA:409,6
DA:412,6
DA:413,6
DA:414,6
DA:416,2
DA:417,2
DA:418,2
DA:419,2
DA:420,2
DA:422,11
DA:423,9
DA:424,9
DA:425,2
DA:426,2
DA:427,2
DA:429,7
DA:430,2
DA:431,2
DA:432,2
DA:434,5
DA:435,2
DA:436,2
DA:437,2
DA:438,2
DA:439,2
DA:440,2
DA:441,2
DA:443,2
DA:444,2
DA:445,2
DA:446,2
DA:448,1
DA:449,1
DA:450,1
DA:451,1
DA:455,2
DA:456,7
DA:463,3
DA:465,3
DA:466,3
DA:467,3
DA:468,3
DA:470,3
DA:471,2
DA:472,1
DA:474,1
DA:475,1
DA:476,1
DA:477,1
DA:480,1
DA:481,1
DA:482,1
DA:484,1
DA:485,1
DA:486,1
DA:487,1
DA:488,2
DA:489,2
DA:490,2
DA:491,1
DA:492,3
DA:503,65
DA:504,65
DA:505,1
DA:506,1
DA:507,64
DA:508,0
DA:509,0
DA:510,0
DA:511,64
DA:512,64
DA:513,64
DA:514,65
DA:520,46
DA:521,46
DA:522,46
DA:523,46
DA:530,11
DA:531,11
DA:532,11
DA:533,11
DA:534,11
DA:535,11
DA:536,11
DA:543,22
DA:544,22
DA:546,21
DA:547,7
DA:548,7
DA:549,7
DA:550,7
DA:551,7
DA:552,5
DA:553,5
DA:554,5
DA:555,5
DA:556,5
DA:557,2
DA:558,2
DA:559,2
DA:560,2
DA:561,2
DA:562,1
DA:563,1
DA:564,1
DA:565,1
DA:566,1
DA:567,1
DA:570,1
DA:572,1
DA:573,1
DA:574,1
DA:575,1
DA:576,1
DA:577,1
DA:578,1
DA:579,1
DA:580,1
DA:581,1
DA:583,1
DA:584,1
DA:585,1
DA:586,1
DA:587,1
DA:588,1
DA:589,1
DA:591,1
DA:592,1
DA:593,1
DA:594,1
DA:595,1
DA:596,1
DA:597,1
DA:598,1
DA:599,1
DA:600,1
DA:601,1
DA:605,20
DA:606,20
DA:607,20
DA:608,20
DA:609,20
DA:610,20
DA:611,20
DA:612,20
DA:613,20
DA:615,20
DA:616,20
DA:617,20
DA:618,22
DA:627,5
DA:629,5
DA:630,4
DA:632,1
DA:634,1
DA:635,0
DA:637,1
DA:638,1
DA:639,1
DA:644,4
DA:645,4
DA:646,4
DA:647,4
DA:648,4
DA:649,4
DA:650,4
DA:652,4
DA:653,4
DA:654,4
DA:655,4
DA:656,4
DA:657,4
DA:659,4
DA:661,3
DA:662,3
DA:663,0
DA:664,0
DA:665,0
DA:666,0
DA:667,3
DA:669,3
DA:670,3
DA:671,3
DA:672,5
DA:777,70
DA:778,70
DA:779,69
DA:780,69
DA:781,69
DA:782,69
DA:783,69
DA:784,69
DA:785,69
DA:786,70
DA:816,9
DA:817,9
DA:818,9
DA:819,9
DA:820,9
DA:821,9
DA:823,35
DA:824,26
DA:825,5
DA:826,21
DA:827,26
DA:828,5
DA:829,21
DA:830,26
DA:831,7
DA:832,19
DA:833,26
DA:834,5
DA:835,5
DA:836,5
DA:837,5
DA:838,21
DA:839,26
DA:840,3
DA:841,23
DA:844,9
DA:845,9
DA:876,1
DA:878,1
DA:879,1
DA:880,0
DA:882,1
DA:883,1
DA:884,2
DA:885,2
DA:886,2
DA:887,2
DA:888,2
DA:889,2
DA:890,2
DA:891,2
DA:892,1
DA:893,1
DA:894,1
DA:897,12
DA:898,12
DA:899,12
DA:900,12
DA:901,12
DA:902,12
DA:903,12
DA:904,12
DA:917,10
DA:918,10
DA:919,10
DA:920,10
DA:921,10
DA:926,0
DA:932,46
DA:933,46
DA:934,46
DA:935,46
DA:936,46
DA:937,46
DA:938,46
DA:939,46
DA:940,46
DA:941,46
DA:942,46
DA:943,46
DA:944,39
DA:945,38
DA:946,1
DA:947,1
DA:948,1
DA:949,1
DA:950,37
DA:951,37
DA:952,37
DA:953,37
DA:954,37
DA:955,37
DA:956,46
DA:964,58
DA:969,0
DA:984,10
DA:987,10
DA:988,10
DA:989,10
DA:990,10
DA:991,10
DA:992,10
DA:993,10
DA:994,10
DA:995,10
DA:996,10
DA:1011,15
DA:1016,0
DA:1117,2
DA:1139,2
DA:1140,2
DA:1141,2
DA:1142,2
DA:1208,2
DA:1233,0
DA:1234,0
DA:1235,0
DA:1239,1
DA:1240,1
DA:1241,1
DA:1242,1
DA:1243,1
DA:1244,1
DA:1245,1
DA:1246,1
DA:1247,1
DA:1248,1
DA:1249,1
DA:1250,1
DA:1251,1
DA:1252,1
DA:1260,1
DA:1261,1
DA:1262,1
DA:1263,1
DA:1264,1
DA:1265,1
DA:1266,1
DA:1269,1
DA:1270,1
DA:1271,1
DA:1273,1
DA:1274,1
DA:1276,1
DA:1277,1
DA:1280,1
DA:1281,1
DA:1282,1
DA:1283,1
DA:1284,1
DA:1287,1
DA:1288,1
DA:1289,1
DA:1290,1
DA:1293,1
DA:1294,1
DA:1295,1
DA:1296,1
DA:1299,1
DA:1300,1
DA:1301,1
DA:1302,1
DA:1303,1
DA:1304,1
DA:1307,1
DA:1308,1
DA:1309,1
DA:1310,1
DA:1311,1
DA:1312,1
DA:1315,1
DA:1316,1
DA:1317,1
DA:1318,1
DA:1319,1
DA:1320,1
DA:1321,1
DA:1322,1
DA:1323,1
DA:1324,1
DA:1325,1
DA:1326,1
DA:1327,1
DA:1330,1
DA:1331,1
DA:1332,1
DA:1333,1
DA:1334,1
DA:1335,1
DA:1336,1
DA:1337,1
DA:1340,1
DA:1341,1
DA:1342,1
DA:1343,1
DA:1344,1
DA:1345,1
DA:1346,1
DA:1347,1
DA:1348,1
DA:1350,1
DA:1351,1
DA:1352,1
DA:1353,1
DA:1354,1
DA:1355,1
DA:1356,1
DA:1357,1
DA:1360,1
DA:1361,1
DA:1362,1
DA:1364,1
DA:1365,1
DA:1366,1
DA:1367,1
DA:1368,1
DA:1371,1
DA:1372,1
DA:1373,1
DA:1374,1
DA:1375,1
DA:1376,1
DA:1379,1
DA:1380,1
DA:1381,1
DA:1382,1
DA:1383,1
DA:1384,1
DA:1387,1
DA:1388,1
DA:1389,1
DA:1390,1
DA:1391,1
DA:1392,1
DA:1395,1
DA:1396,1
DA:1397,1
DA:1398,1
DA:1399,1
DA:1400,1
DA:1401,1
DA:1404,1
DA:1405,1
DA:1406,1
DA:1407,1
DA:1408,1
DA:1411,1
DA:1412,1
DA:1413,1
DA:1414,1
DA:1417,1
DA:1418,1
DA:1419,1
DA:1420,1
DA:1421,1
DA:1422,1
DA:1423,1
DA:1424,1
DA:1426,1
DA:1429,1
DA:1430,1
DA:1431,1
DA:1432,1
DA:1433,1
DA:1436,1
DA:1437,1
DA:1438,1
DA:1440,1
DA:1441,1
DA:1442,1
DA:1443,1
DA:1446,1
DA:1447,1
DA:1448,1
DA:1449,1
DA:1450,1
DA:1451,1
DA:1452,1
DA:1455,1
DA:1457,1
DA:1458,1
DA:1459,1
DA:1462,1
DA:1463,1
DA:1464,1
DA:1465,1
DA:1466,1
DA:1469,1
DA:1470,1
DA:1471,1
DA:1472,1
DA:1475,1
DA:1476,1
DA:1477,1
DA:1478,1
DA:1479,1
DA:1482,1
DA:1483,1
DA:1484,1
DA:1486,1
DA:1487,1
DA:1488,1
DA:1489,1
DA:1490,1
DA:1491,1
DA:1492,1
DA:1493,1
DA:1494,1
DA:1495,1
DA:1496,1
DA:1497,1
DA:1498,1
BRF:0
BRH:0
LF:778
LH:723
end_of_record
SF:/Users/waku/dev/govee/src/backend/local.rs
FN:467,_RNCNCNCNvXs1_NtNtCsf2i7I5CTk8o_5govee7backend5localNtBb_12LocalBackendNtBd_12GoveeBackend12list_devices000Bf_
FN:477,_RNCNCNCNvXs1_NtNtCsf2i7I5CTk8o_5govee7backend5localNtBb_12LocalBackendNtBd_12GoveeBackend12list_devices00s_0Bf_
FN:274,_RNCNCNvMNtNtCsf2i7I5CTk8o_5govee7backend5localNtB6_12LocalBackend13get_device_ip0s_0Ba_
FN:257,_RNCNvMNtNtCsf2i7I5CTk8o_5govee7backend5localNtB4_12LocalBackend12send_command0B8_
FN:269,_RNCNvMNtNtCsf2i7I5CTk8o_5govee7backend5localNtB4_12LocalBackend13get_device_ip0B8_
FN:209,_RNCNvMNtNtCsf2i7I5CTk8o_5govee7backend5localNtB4_12LocalBackend8discover0B8_
FN:413,_RNCNvNtNtCsf2i7I5CTk8o_5govee7backend5local16parse_dev_status0B7_
FN:420,_RNCNvNtNtCsf2i7I5CTk8o_5govee7backend5local16parse_dev_statuss0_0B7_
FN:421,_RNCNvNtNtCsf2i7I5CTk8o_5govee7backend5local16parse_dev_statuss1_0B7_
FN:422,_RNCNvNtNtCsf2i7I5CTk8o_5govee7backend5local16parse_dev_statuss2_0B7_
FN:432,_RNCNvNtNtCsf2i7I5CTk8o_5govee7backend5local16parse_dev_statuss3_0B7_
FN:433,_RNCNvNtNtCsf2i7I5CTk8o_5govee7backend5local16parse_dev_statuss4_0B7_
FN:434,_RNCNvNtNtCsf2i7I5CTk8o_5govee7backend5local16parse_dev_statuss5_0B7_
FN:416,_RNCNvNtNtCsf2i7I5CTk8o_5govee7backend5local16parse_dev_statuss_0B7_
FN:679,_RNCNvXs_NtNtCsf2i7I5CTk8o_5govee7backend5localNtB6_12LocalBackendNtNtCs85QQFkKrybG_4core3fmt5Debug3fmt0Ba_
FN:688,_RNvXs0_NtNtCsf2i7I5CTk8o_5govee7backend5localNtB5_12LocalBackendNtNtNtCs85QQFkKrybG_4core3ops4drop4Drop4drop
FN:257,_RNvMNtNtCsf2i7I5CTk8o_5govee7backend5localNtB2_12LocalBackend12send_command
FN:269,_RNvMNtNtCsf2i7I5CTk8o_5govee7backend5localNtB2_12LocalBackend13get_device_ip
FN:130,_RNvMNtNtCsf2i7I5CTk8o_5govee7backend5localNtB2_12LocalBackend3new
FN:209,_RNvMNtNtCsf2i7I5CTk8o_5govee7backend5localNtB2_12LocalBackend8discover
FN:314,_RNvNtNtCsf2i7I5CTk8o_5govee7backend5local13handle_packet
FN:280,_RNvNtNtCsf2i7I5CTk8o_5govee7backend5local13receiver_loop
FN:22,_RNvNtNtCsf2i7I5CTk8o_5govee7backend5local14protocol_error
FN:447,_RNvNtNtCsf2i7I5CTk8o_5govee7backend5local15validate_kelvin
FN:412,_RNvNtNtCsf2i7I5CTk8o_5govee7backend5local16parse_dev_status
FN:395,_RNvNtNtCsf2i7I5CTk8o_5govee7backend5local17handle_dev_status
FN:33,_RNvNtNtCsf2i7I5CTk8o_5govee7backend5local17validate_local_ip
FN:351,_RNvNtNtCsf2i7I5CTk8o_5govee7backend5local20handle_scan_response
FN:613,_RNvXs1_NtNtCsf2i7I5CTk8o_5govee7backend5localNtB5_12LocalBackendNtB7_12GoveeBackend11list_scenes
FN:672,_RNvXs1_NtNtCsf2i7I5CTk8o_5govee7backend5localNtB5_12LocalBackendNtB7_12GoveeBackend12backend_type
FN:629,_RNvXs1_NtNtCsf2i7I5CTk8o_5govee7backend5localNtB5_12LocalBackendNtB7_12GoveeBackend13set_diy_scene
FN:666,_RNvXs1_NtNtCsf2i7I5CTk8o_5govee7backend5localNtB5_12LocalBackendNtB7_12GoveeBackend13set_work_mode
FN:625,_RNvXs1_NtNtCsf2i7I5CTk8o_5govee7backend5localNtB5_12LocalBackendNtB7_12GoveeBackend15list_diy_scenes
FN:657,_RNvXs1_NtNtCsf2i7I5CTk8o_5govee7backend5localNtB5_12LocalBackendNtB7_12GoveeBackend15list_work_modes
FN:640,_RNvXs1_NtNtCsf2i7I5CTk8o_5govee7backend5localNtB5_12LocalBackendNtB7_12GoveeBackend17set_segment_color
FN:651,_RNvXs1_NtNtCsf2i7I5CTk8o_5govee7backend5localNtB5_12LocalBackendNtB7_12GoveeBackend22set_segment_brightness
FN:619,_RNvXs1_NtNtCsf2i7I5CTk8o_5govee7backend5localNtB5_12LocalBackendNtB7_12GoveeBackend9set_scene
FN:678,_RNvXs_NtNtCsf2i7I5CTk8o_5govee7backend5localNtB4_12LocalBackendNtNtCs85QQFkKrybG_4core3fmt5Debug3fmt
FN:679,_RNCNvXs_NtNtCseqgZqxOBWDO_5govee7backend5localNtB6_12LocalBackendNtNtCs85QQFkKrybG_4core3fmt5Debug3fmt0Ba_
FN:678,_RNvXs_NtNtCseqgZqxOBWDO_5govee7backend5localNtB4_12LocalBackendNtNtCs85QQFkKrybG_4core3fmt5Debug3fmt
FN:257,_RNvMNtNtCseqgZqxOBWDO_5govee7backend5localNtB2_12LocalBackend12send_command
FN:269,_RNvMNtNtCseqgZqxOBWDO_5govee7backend5localNtB2_12LocalBackend13get_device_ip
FN:130,_RNvMNtNtCseqgZqxOBWDO_5govee7backend5localNtB2_12LocalBackend3new
FN:209,_RNvMNtNtCseqgZqxOBWDO_5govee7backend5localNtB2_12LocalBackend8discover
FN:314,_RNvNtNtCseqgZqxOBWDO_5govee7backend5local13handle_packet
FN:280,_RNvNtNtCseqgZqxOBWDO_5govee7backend5local13receiver_loop
FN:22,_RNvNtNtCseqgZqxOBWDO_5govee7backend5local14protocol_error
FN:447,_RNvNtNtCseqgZqxOBWDO_5govee7backend5local15validate_kelvin
FN:412,_RNvNtNtCseqgZqxOBWDO_5govee7backend5local16parse_dev_status
FN:395,_RNvNtNtCseqgZqxOBWDO_5govee7backend5local17handle_dev_status
FN:33,_RNvNtNtCseqgZqxOBWDO_5govee7backend5local17validate_local_ip
FN:351,_RNvNtNtCseqgZqxOBWDO_5govee7backend5local20handle_scan_response
FN:701,_RNvNtNtCseqgZqxOBWDO_5govee7backend5local31__assert_boxed_backend_send_sync
FN:697,_RNvNtNtCseqgZqxOBWDO_5govee7backend5local31__assert_local_backend_send_sync
FN:613,_RNvXs1_NtNtCseqgZqxOBWDO_5govee7backend5localNtB5_12LocalBackendNtB7_12GoveeBackend11list_scenes
FN:672,_RNvXs1_NtNtCseqgZqxOBWDO_5govee7backend5localNtB5_12LocalBackendNtB7_12GoveeBackend12backend_type
FN:629,_RNvXs1_NtNtCseqgZqxOBWDO_5govee7backend5localNtB5_12LocalBackendNtB7_12GoveeBackend13set_diy_scene
FN:666,_RNvXs1_NtNtCseqgZqxOBWDO_5govee7backend5localNtB5_12LocalBackendNtB7_12GoveeBackend13set_work_mode
FN:625,_RNvXs1_NtNtCseqgZqxOBWDO_5govee7backend5localNtB5_12LocalBackendNtB7_12GoveeBackend15list_diy_scenes
FN:657,_RNvXs1_NtNtCseqgZqxOBWDO_5govee7backend5localNtB5_12LocalBackendNtB7_12GoveeBackend15list_work_modes
FN:640,_RNvXs1_NtNtCseqgZqxOBWDO_5govee7backend5localNtB5_12LocalBackendNtB7_12GoveeBackend17set_segment_color
FN:651,_RNvXs1_NtNtCseqgZqxOBWDO_5govee7backend5localNtB5_12LocalBackendNtB7_12GoveeBackend22set_segment_brightness
FN:619,_RNvXs1_NtNtCseqgZqxOBWDO_5govee7backend5localNtB5_12LocalBackendNtB7_12GoveeBackend9set_scene
FN:695,_RINvNtNtCseqgZqxOBWDO_5govee7backend5local17__assert_send_syncINtNtCsdFlNUEO95cG_5alloc5boxed3BoxDNtB4_12GoveeBackendEL_EEB6_
FN:695,_RINvNtNtCseqgZqxOBWDO_5govee7backend5local17__assert_send_syncNtB2_12LocalBackendEB6_
FN:467,_RNCNCNCNvXs1_NtNtCseqgZqxOBWDO_5govee7backend5localNtBb_12LocalBackendNtBd_12GoveeBackend12list_devices000Bf_
FN:477,_RNCNCNCNvXs1_NtNtCseqgZqxOBWDO_5govee7backend5localNtBb_12LocalBackendNtBd_12GoveeBackend12list_devices00s_0Bf_
FN:274,_RNCNCNvMNtNtCseqgZqxOBWDO_5govee7backend5localNtB6_12LocalBackend13get_device_ip0s_0Ba_
FN:181,_RNCNCNvMNtNtCseqgZqxOBWDO_5govee7backend5localNtB6_12LocalBackend3new00Ba_
FN:323,_RNCNCNvNtNtCseqgZqxOBWDO_5govee7backend5local13handle_packet00B9_
FN:327,_RNCNCNvNtNtCseqgZqxOBWDO_5govee7backend5local13handle_packet0s0_0B9_
FN:333,_RNCNCNvNtNtCseqgZqxOBWDO_5govee7backend5local13handle_packet0s1_0B9_
FN:339,_RNCNCNvNtNtCseqgZqxOBWDO_5govee7backend5local13handle_packet0s2_0B9_
FN:326,_RNCNCNvNtNtCseqgZqxOBWDO_5govee7backend5local13handle_packet0s_0B9_
FN:358,_RNCNCNvNtNtCseqgZqxOBWDO_5govee7backend5local20handle_scan_response00B9_
FN:362,_RNCNCNvNtNtCseqgZqxOBWDO_5govee7backend5local20handle_scan_response0s0_0B9_
FN:363,_RNCNCNvNtNtCseqgZqxOBWDO_5govee7backend5local20handle_scan_response0s1_0B9_
FN:369,_RNCNCNvNtNtCseqgZqxOBWDO_5govee7backend5local20handle_scan_response0s2_0B9_
FN:359,_RNCNCNvNtNtCseqgZqxOBWDO_5govee7backend5local20handle_scan_response0s_0B9_
FN:257,_RNCNvMNtNtCseqgZqxOBWDO_5govee7backend5localNtB4_12LocalBackend12send_command0B8_
FN:269,_RNCNvMNtNtCseqgZqxOBWDO_5govee7backend5localNtB4_12LocalBackend13get_device_ip0B8_
FN:130,_RNCNvMNtNtCseqgZqxOBWDO_5govee7backend5localNtB4_12LocalBackend3new0B8_
FN:209,_RNCNvMNtNtCseqgZqxOBWDO_5govee7backend5localNtB4_12LocalBackend8discover0B8_
FN:319,_RNCNvNtNtCseqgZqxOBWDO_5govee7backend5local13handle_packet0B7_
FN:285,_RNCNvNtNtCseqgZqxOBWDO_5govee7backend5local13receiver_loop0B7_
FN:413,_RNCNvNtNtCseqgZqxOBWDO_5govee7backend5local16parse_dev_status0B7_
FN:420,_RNCNvNtNtCseqgZqxOBWDO_5govee7backend5local16parse_dev_statuss0_0B7_
FN:421,_RNCNvNtNtCseqgZqxOBWDO_5govee7backend5local16parse_dev_statuss1_0B7_
FN:422,_RNCNvNtNtCseqgZqxOBWDO_5govee7backend5local16parse_dev_statuss2_0B7_
FN:432,_RNCNvNtNtCseqgZqxOBWDO_5govee7backend5local16parse_dev_statuss3_0B7_
FN:433,_RNCNvNtNtCseqgZqxOBWDO_5govee7backend5local16parse_dev_statuss4_0B7_
FN:434,_RNCNvNtNtCseqgZqxOBWDO_5govee7backend5local16parse_dev_statuss5_0B7_
FN:416,_RNCNvNtNtCseqgZqxOBWDO_5govee7backend5local16parse_dev_statuss_0B7_
FN:399,_RNCNvNtNtCseqgZqxOBWDO_5govee7backend5local17handle_dev_status0B7_
FN:355,_RNCNvNtNtCseqgZqxOBWDO_5govee7backend5local20handle_scan_response0B7_
FN:804,_RNvNtNtNtCseqgZqxOBWDO_5govee7backend5local5testss_16cache_ttl_expiry
FN:899,_RNvNtNtNtCseqgZqxOBWDO_5govee7backend5local5testss_17set_color_payload
FN:752,_RNvNtNtNtCseqgZqxOBWDO_5govee7backend5local5testss_20parse_dev_status_off
FN:853,_RNvNtNtNtCseqgZqxOBWDO_5govee7backend5local5testss_20send_sync_assertions
FN:859,_RNvNtNtNtCseqgZqxOBWDO_5govee7backend5local5testss_20set_power_payload_on
FN:735,_RNvNtNtNtCseqgZqxOBWDO_5govee7backend5local5testss_21parse_dev_status_json
FN:872,_RNvNtNtNtCseqgZqxOBWDO_5govee7backend5local5testss_21set_power_payload_off
FN:885,_RNvNtNtNtCseqgZqxOBWDO_5govee7backend5local5testss_22set_brightness_payload
FN:919,_RNvNtNtNtCseqgZqxOBWDO_5govee7backend5local5testss_22set_color_temp_payload
FN:710,_RNvNtNtNtCseqgZqxOBWDO_5govee7backend5local5testss_24parse_scan_response_json
FN:968,_RNvNtNtNtCseqgZqxOBWDO_5govee7backend5local5testss_29ip_validation_public_rejected
FN:780,_RNvNtNtNtCseqgZqxOBWDO_5govee7backend5local5testss_29parse_dev_status_clamps_color
FN:953,_RNvNtNtNtCseqgZqxOBWDO_5govee7backend5local5testss_30ip_validation_private_accepted
FN:958,_RNvNtNtNtCseqgZqxOBWDO_5govee7backend5local5testss_31ip_validation_loopback_accepted
FN:963,_RNvNtNtNtCseqgZqxOBWDO_5govee7backend5local5testss_33ip_validation_link_local_accepted
FN:768,_RNvNtNtNtCseqgZqxOBWDO_5govee7backend5local5testss_34parse_dev_status_clamps_brightness
FN:792,_RNvNtNtNtCseqgZqxOBWDO_5govee7backend5local5testss_35parse_dev_status_missing_color_temp
FN:939,_RNvNtNtNtCseqgZqxOBWDO_5govee7backend5local5testss_35set_color_temp_kelvin_zero_rejected
FN:829,_RNvNtNtNtCseqgZqxOBWDO_5govee7backend5local5testss_38discovered_device_to_device_conversion
FN:946,_RNvNtNtNtCseqgZqxOBWDO_5govee7backend5local5testss_42set_color_temp_kelvin_above_10000_rejected
FN:721,_RNCNvNtNtNtCseqgZqxOBWDO_5govee7backend5local5testss_24parse_scan_response_json0B9_
FN:724,_RNCNvNtNtNtCseqgZqxOBWDO_5govee7backend5local5testss_24parse_scan_response_jsons0_0B9_
FN:723,_RNCNvNtNtNtCseqgZqxOBWDO_5govee7backend5local5testss_24parse_scan_response_jsons_0B9_
FN:688,_RNvXs0_NtNtCseqgZqxOBWDO_5govee7backend5localNtB5_12LocalBackendNtNtNtCs85QQFkKrybG_4core3ops4drop4Drop4drop
FN:181,_RNCNCNvMNtNtCsf2i7I5CTk8o_5govee7backend5localNtB6_12LocalBackend3new00Cs59FlhbXfkgP_10local_mock
FN:323,_RNCNCNvNtNtCsf2i7I5CTk8o_5govee7backend5local13handle_packet00Cs59FlhbXfkgP_10local_mock
FN:327,_RNCNCNvNtNtCsf2i7I5CTk8o_5govee7backend5local13handle_packet0s0_0Cs59FlhbXfkgP_10local_mock
FN:333,_RNCNCNvNtNtCsf2i7I5CTk8o_5govee7backend5local13handle_packet0s1_0Cs59FlhbXfkgP_10local_mock
FN:339,_RNCNCNvNtNtCsf2i7I5CTk8o_5govee7backend5local13handle_packet0s2_0Cs59FlhbXfkgP_10local_mock
FN:326,_RNCNCNvNtNtCsf2i7I5CTk8o_5govee7backend5local13handle_packet0s_0Cs59FlhbXfkgP_10local_mock
FN:358,_RNCNCNvNtNtCsf2i7I5CTk8o_5govee7backend5local20handle_scan_response00Cs59FlhbXfkgP_10local_mock
FN:362,_RNCNCNvNtNtCsf2i7I5CTk8o_5govee7backend5local20handle_scan_response0s0_0Cs59FlhbXfkgP_10local_mock
FN:363,_RNCNCNvNtNtCsf2i7I5CTk8o_5govee7backend5local20handle_scan_response0s1_0Cs59FlhbXfkgP_10local_mock
FN:369,_RNCNCNvNtNtCsf2i7I5CTk8o_5govee7backend5local20handle_scan_response0s2_0Cs59FlhbXfkgP_10local_mock
FN:359,_RNCNCNvNtNtCsf2i7I5CTk8o_5govee7backend5local20handle_scan_response0s_0Cs59FlhbXfkgP_10local_mock
FN:130,_RNCNvMNtNtCsf2i7I5CTk8o_5govee7backend5localNtB4_12LocalBackend3new0Cs59FlhbXfkgP_10local_mock
FN:319,_RNCNvNtNtCsf2i7I5CTk8o_5govee7backend5local13handle_packet0Cs59FlhbXfkgP_10local_mock
FN:285,_RNCNvNtNtCsf2i7I5CTk8o_5govee7backend5local13receiver_loop0Cs59FlhbXfkgP_10local_mock
FN:399,_RNCNvNtNtCsf2i7I5CTk8o_5govee7backend5local17handle_dev_status0Cs59FlhbXfkgP_10local_mock
FN:355,_RNCNvNtNtCsf2i7I5CTk8o_5govee7backend5local20handle_scan_response0Cs59FlhbXfkgP_10local_mock
FNDA:1,_RNCNCNCNvXs1_NtNtCsf2i7I5CTk8o_5govee7backend5localNtBb_12LocalBackendNtBd_12GoveeBackend12list_devices000Bf_
FNDA:1,_RNCNCNCNvXs1_NtNtCsf2i7I5CTk8o_5govee7backend5localNtBb_12LocalBackendNtBd_12GoveeBackend12list_devices00s_0Bf_
FNDA:5,_RNCNCNvMNtNtCsf2i7I5CTk8o_5govee7backend5localNtB6_12LocalBackend13get_device_ip0s_0Ba_
FNDA:8,_RNCNvMNtNtCsf2i7I5CTk8o_5govee7backend5localNtB4_12LocalBackend12send_command0B8_
FNDA:12,_RNCNvMNtNtCsf2i7I5CTk8o_5govee7backend5localNtB4_12LocalBackend13get_device_ip0B8_
FNDA:0,_RNCNvMNtNtCsf2i7I5CTk8o_5govee7backend5localNtB4_12LocalBackend8discover0B8_
FNDA:1,_RNCNvNtNtCsf2i7I5CTk8o_5govee7backend5local16parse_dev_status0B7_
FNDA:1,_RNCNvNtNtCsf2i7I5CTk8o_5govee7backend5local16parse_dev_statuss0_0B7_
FNDA:1,_RNCNvNtNtCsf2i7I5CTk8o_5govee7backend5local16parse_dev_statuss1_0B7_
FNDA:1,_RNCNvNtNtCsf2i7I5CTk8o_5govee7backend5local16parse_dev_statuss2_0B7_
FNDA:1,_RNCNvNtNtCsf2i7I5CTk8o_5govee7backend5local16parse_dev_statuss3_0B7_
FNDA:1,_RNCNvNtNtCsf2i7I5CTk8o_5govee7backend5local16parse_dev_statuss4_0B7_
FNDA:1,_RNCNvNtNtCsf2i7I5CTk8o_5govee7backend5local16parse_dev_statuss5_0B7_
FNDA:1,_RNCNvNtNtCsf2i7I5CTk8o_5govee7backend5local16parse_dev_statuss_0B7_
FNDA:0,_RNCNvXs_NtNtCsf2i7I5CTk8o_5govee7backend5localNtB6_12LocalBackendNtNtCs85QQFkKrybG_4core3fmt5Debug3fmt0Ba_
FNDA:19,_RNvXs0_NtNtCsf2i7I5CTk8o_5govee7backend5localNtB5_12LocalBackendNtNtNtCs85QQFkKrybG_4core3ops4drop4Drop4drop
FNDA:8,_RNvMNtNtCsf2i7I5CTk8o_5govee7backend5localNtB2_12LocalBackend12send_command
FNDA:12,_RNvMNtNtCsf2i7I5CTk8o_5govee7backend5localNtB2_12LocalBackend13get_device_ip
FNDA:20,_RNvMNtNtCsf2i7I5CTk8o_5govee7backend5localNtB2_12LocalBackend3new
FNDA:0,_RNvMNtNtCsf2i7I5CTk8o_5govee7backend5localNtB2_12LocalBackend8discover
FNDA:10,_RNvNtNtCsf2i7I5CTk8o_5govee7backend5local13handle_packet
FNDA:9,_RNvNtNtCsf2i7I5CTk8o_5govee7backend5local13receiver_loop
FNDA:0,_RNvNtNtCsf2i7I5CTk8o_5govee7backend5local14protocol_error
FNDA:3,_RNvNtNtCsf2i7I5CTk8o_5govee7backend5local15validate_kelvin
FNDA:1,_RNvNtNtCsf2i7I5CTk8o_5govee7backend5local16parse_dev_status
FNDA:1,_RNvNtNtCsf2i7I5CTk8o_5govee7backend5local17handle_dev_status
FNDA:6,_RNvNtNtCsf2i7I5CTk8o_5govee7backend5local17validate_local_ip
FNDA:9,_RNvNtNtCsf2i7I5CTk8o_5govee7backend5local20handle_scan_response
FNDA:1,_RNvXs1_NtNtCsf2i7I5CTk8o_5govee7backend5localNtB5_12LocalBackendNtB7_12GoveeBackend11list_scenes
FNDA:1,_RNvXs1_NtNtCsf2i7I5CTk8o_5govee7backend5localNtB5_12LocalBackendNtB7_12GoveeBackend12backend_type
FNDA:1,_RNvXs1_NtNtCsf2i7I5CTk8o_5govee7backend5localNtB5_12LocalBackendNtB7_12GoveeBackend13set_diy_scene
FNDA:1,_RNvXs1_NtNtCsf2i7I5CTk8o_5govee7backend5localNtB5_12LocalBackendNtB7_12GoveeBackend13set_work_mode
FNDA:1,_RNvXs1_NtNtCsf2i7I5CTk8o_5govee7backend5localNtB5_12LocalBackendNtB7_12GoveeBackend15list_diy_scenes
FNDA:1,_RNvXs1_NtNtCsf2i7I5CTk8o_5govee7backend5localNtB5_12LocalBackendNtB7_12GoveeBackend15list_work_modes
FNDA:1,_RNvXs1_NtNtCsf2i7I5CTk8o_5govee7backend5localNtB5_12LocalBackendNtB7_12GoveeBackend17set_segment_color
FNDA:1,_RNvXs1_NtNtCsf2i7I5CTk8o_5govee7backend5localNtB5_12LocalBackendNtB7_12GoveeBackend22set_segment_brightness
FNDA:1,_RNvXs1_NtNtCsf2i7I5CTk8o_5govee7backend5localNtB5_12LocalBackendNtB7_12GoveeBackend9set_scene
FNDA:0,_RNvXs_NtNtCsf2i7I5CTk8o_5govee7backend5localNtB4_12LocalBackendNtNtCs85QQFkKrybG_4core3fmt5Debug3fmt
FNDA:0,_RNCNvXs_NtNtCseqgZqxOBWDO_5govee7backend5localNtB6_12LocalBackendNtNtCs85QQFkKrybG_4core3fmt5Debug3fmt0Ba_
FNDA:0,_RNvXs_NtNtCseqgZqxOBWDO_5govee7backend5localNtB4_12LocalBackendNtNtCs85QQFkKrybG_4core3fmt5Debug3fmt
FNDA:0,_RNvMNtNtCseqgZqxOBWDO_5govee7backend5localNtB2_12LocalBackend12send_command
FNDA:0,_RNvMNtNtCseqgZqxOBWDO_5govee7backend5localNtB2_12LocalBackend13get_device_ip
FNDA:0,_RNvMNtNtCseqgZqxOBWDO_5govee7backend5localNtB2_12LocalBackend3new
FNDA:0,_RNvMNtNtCseqgZqxOBWDO_5govee7backend5localNtB2_12LocalBackend8discover
FNDA:0,_RNvNtNtCseqgZqxOBWDO_5govee7backend5local13handle_packet
FNDA:0,_RNvNtNtCseqgZqxOBWDO_5govee7backend5local13receiver_loop
FNDA:0,_RNvNtNtCseqgZqxOBWDO_5govee7backend5local14protocol_error
FNDA:2,_RNvNtNtCseqgZqxOBWDO_5govee7backend5local15validate_kelvin
FNDA:5,_RNvNtNtCseqgZqxOBWDO_5govee7backend5local16parse_dev_status
FNDA:0,_RNvNtNtCseqgZqxOBWDO_5govee7backend5local17handle_dev_status
FNDA:4,_RNvNtNtCseqgZqxOBWDO_5govee7backend5local17validate_local_ip
FNDA:0,_RNvNtNtCseqgZqxOBWDO_5govee7backend5local20handle_scan_response
FNDA:1,_RNvNtNtCseqgZqxOBWDO_5govee7backend5local31__assert_boxed_backend_send_sync
FNDA:1,_RNvNtNtCseqgZqxOBWDO_5govee7backend5local31__assert_local_backend_send_sync
FNDA:0,_RNvXs1_NtNtCseqgZqxOBWDO_5govee7backend5localNtB5_12LocalBackendNtB7_12GoveeBackend11list_scenes
FNDA:0,_RNvXs1_NtNtCseqgZqxOBWDO_5govee7backend5localNtB5_12LocalBackendNtB7_12GoveeBackend12backend_type
FNDA:0,_RNvXs1_NtNtCseqgZqxOBWDO_5govee7backend5localNtB5_12LocalBackendNtB7_12GoveeBackend13set_diy_scene
FNDA:0,_RNvXs1_NtNtCseqgZqxOBWDO_5govee7backend5localNtB5_12LocalBackendNtB7_12GoveeBackend13set_work_mode
FNDA:0,_RNvXs1_NtNtCseqgZqxOBWDO_5govee7backend5localNtB5_12LocalBackendNtB7_12GoveeBackend15list_diy_scenes
FNDA:0,_RNvXs1_NtNtCseqgZqxOBWDO_5govee7backend5localNtB5_12LocalBackendNtB7_12GoveeBackend15list_work_modes
FNDA:0,_RNvXs1_NtNtCseqgZqxOBWDO_5govee7backend5localNtB5_12LocalBackendNtB7_12GoveeBackend17set_segment_color
FNDA:0,_RNvXs1_NtNtCseqgZqxOBWDO_5govee7backend5localNtB5_12LocalBackendNtB7_12GoveeBackend22set_segment_brightness
FNDA:0,_RNvXs1_NtNtCseqgZqxOBWDO_5govee7backend5localNtB5_12LocalBackendNtB7_12GoveeBackend9set_scene
FNDA:1,_RINvNtNtCseqgZqxOBWDO_5govee7backend5local17__assert_send_syncINtNtCsdFlNUEO95cG_5alloc5boxed3BoxDNtB4_12GoveeBackendEL_EEB6_
FNDA:1,_RINvNtNtCseqgZqxOBWDO_5govee7backend5local17__assert_send_syncNtB2_12LocalBackendEB6_
FNDA:0,_RNCNCNCNvXs1_NtNtCseqgZqxOBWDO_5govee7backend5localNtBb_12LocalBackendNtBd_12GoveeBackend12list_devices000Bf_
FNDA:0,_RNCNCNCNvXs1_NtNtCseqgZqxOBWDO_5govee7backend5localNtBb_12LocalBackendNtBd_12GoveeBackend12list_devices00s_0Bf_
FNDA:0,_RNCNCNvMNtNtCseqgZqxOBWDO_5govee7backend5localNtB6_12LocalBackend13get_device_ip0s_0Ba_
FNDA:0,_RNCNCNvMNtNtCseqgZqxOBWDO_5govee7backend5localNtB6_12LocalBackend3new00Ba_
FNDA:0,_RNCNCNvNtNtCseqgZqxOBWDO_5govee7backend5local13handle_packet00B9_
FNDA:0,_RNCNCNvNtNtCseqgZqxOBWDO_5govee7backend5local13handle_packet0s0_0B9_
FNDA:0,_RNCNCNvNtNtCseqgZqxOBWDO_5govee7backend5local13handle_packet0s1_0B9_
FNDA:0,_RNCNCNvNtNtCseqgZqxOBWDO_5govee7backend5local13handle_packet0s2_0B9_
FNDA:0,_RNCNCNvNtNtCseqgZqxOBWDO_5govee7backend5local13handle_packet0s_0B9_
FNDA:0,_RNCNCNvNtNtCseqgZqxOBWDO_5govee7backend5local20handle_scan_response00B9_
FNDA:0,_RNCNCNvNtNtCseqgZqxOBWDO_5govee7backend5local20handle_scan_response0s0_0B9_
FNDA:0,_RNCNCNvNtNtCseqgZqxOBWDO_5govee7backend5local20handle_scan_response0s1_0B9_
FNDA:0,_RNCNCNvNtNtCseqgZqxOBWDO_5govee7backend5local20handle_scan_response0s2_0B9_
FNDA:0,_RNCNCNvNtNtCseqgZqxOBWDO_5govee7backend5local20handle_scan_response0s_0B9_
FNDA:0,_RNCNvMNtNtCseqgZqxOBWDO_5govee7backend5localNtB4_12LocalBackend12send_command0B8_
FNDA:0,_RNCNvMNtNtCseqgZqxOBWDO_5govee7backend5localNtB4_12LocalBackend13get_device_ip0B8_
FNDA:0,_RNCNvMNtNtCseqgZqxOBWDO_5govee7backend5localNtB4_12LocalBackend3new0B8_
FNDA:0,_RNCNvMNtNtCseqgZqxOBWDO_5govee7backend5localNtB4_12LocalBackend8discover0B8_
FNDA:0,_RNCNvNtNtCseqgZqxOBWDO_5govee7backend5local13handle_packet0B7_
FNDA:0,_RNCNvNtNtCseqgZqxOBWDO_5govee7backend5local13receiver_loop0B7_
FNDA:5,_RNCNvNtNtCseqgZqxOBWDO_5govee7backend5local16parse_dev_status0B7_
FNDA:5,_RNCNvNtNtCseqgZqxOBWDO_5govee7backend5local16parse_dev_statuss0_0B7_
FNDA:5,_RNCNvNtNtCseqgZqxOBWDO_5govee7backend5local16parse_dev_statuss1_0B7_
FNDA:5,_RNCNvNtNtCseqgZqxOBWDO_5govee7backend5local16parse_dev_statuss2_0B7_
FNDA:2,_RNCNvNtNtCseqgZqxOBWDO_5govee7backend5local16parse_dev_statuss3_0B7_
FNDA:2,_RNCNvNtNtCseqgZqxOBWDO_5govee7backend5local16parse_dev_statuss4_0B7_
FNDA:2,_RNCNvNtNtCseqgZqxOBWDO_5govee7backend5local16parse_dev_statuss5_0B7_
FNDA:5,_RNCNvNtNtCseqgZqxOBWDO_5govee7backend5local16parse_dev_statuss_0B7_
FNDA:0,_RNCNvNtNtCseqgZqxOBWDO_5govee7backend5local17handle_dev_status0B7_
FNDA:0,_RNCNvNtNtCseqgZqxOBWDO_5govee7backend5local20handle_scan_response0B7_
FNDA:1,_RNvNtNtNtCseqgZqxOBWDO_5govee7backend5local5testss_16cache_ttl_expiry
FNDA:1,_RNvNtNtNtCseqgZqxOBWDO_5govee7backend5local5testss_17set_color_payload
FNDA:1,_RNvNtNtNtCseqgZqxOBWDO_5govee7backend5local5testss_20parse_dev_status_off
FNDA:1,_RNvNtNtNtCseqgZqxOBWDO_5govee7backend5local5testss_20send_sync_assertions
FNDA:1,_RNvNtNtNtCseqgZqxOBWDO_5govee7backend5local5testss_20set_power_payload_on
FNDA:1,_RNvNtNtNtCseqgZqxOBWDO_5govee7backend5local5testss_21parse_dev_status_json
FNDA:1,_RNvNtNtNtCseqgZqxOBWDO_5govee7backend5local5testss_21set_power_payload_off
FNDA:1,_RNvNtNtNtCseqgZqxOBWDO_5govee7backend5local5testss_22set_brightness_payload
FNDA:1,_RNvNtNtNtCseqgZqxOBWDO_5govee7backend5local5testss_22set_color_temp_payload
FNDA:1,_RNvNtNtNtCseqgZqxOBWDO_5govee7backend5local5testss_24parse_scan_response_json
FNDA:1,_RNvNtNtNtCseqgZqxOBWDO_5govee7backend5local5testss_29ip_validation_public_rejected
FNDA:1,_RNvNtNtNtCseqgZqxOBWDO_5govee7backend5local5testss_29parse_dev_status_clamps_color
FNDA:1,_RNvNtNtNtCseqgZqxOBWDO_5govee7backend5local5testss_30ip_validation_private_accepted
FNDA:1,_RNvNtNtNtCseqgZqxOBWDO_5govee7backend5local5testss_31ip_validation_loopback_accepted
FNDA:1,_RNvNtNtNtCseqgZqxOBWDO_5govee7backend5local5testss_33ip_validation_link_local_accepted
FNDA:1,_RNvNtNtNtCseqgZqxOBWDO_5govee7backend5local5testss_34parse_dev_status_clamps_brightness
FNDA:1,_RNvNtNtNtCseqgZqxOBWDO_5govee7backend5local5testss_35parse_dev_status_missing_color_temp
FNDA:1,_RNvNtNtNtCseqgZqxOBWDO_5govee7backend5local5testss_35set_color_temp_kelvin_zero_rejected
FNDA:1,_RNvNtNtNtCseqgZqxOBWDO_5govee7backend5local5testss_38discovered_device_to_device_conversion
FNDA:1,_RNvNtNtNtCseqgZqxOBWDO_5govee7backend5local5testss_42set_color_temp_kelvin_above_10000_rejected
FNDA:1,_RNCNvNtNtNtCseqgZqxOBWDO_5govee7backend5local5testss_24parse_scan_response_json0B9_
FNDA:1,_RNCNvNtNtNtCseqgZqxOBWDO_5govee7backend5local5testss_24parse_scan_response_jsons0_0B9_
FNDA:1,_RNCNvNtNtNtCseqgZqxOBWDO_5govee7backend5local5testss_24parse_scan_response_jsons_0B9_
FNDA:0,_RNvXs0_NtNtCseqgZqxOBWDO_5govee7backend5localNtB5_12LocalBackendNtNtNtCs85QQFkKrybG_4core3ops4drop4Drop4drop
FNDA:9,_RNCNCNvMNtNtCsf2i7I5CTk8o_5govee7backend5localNtB6_12LocalBackend3new00Cs59FlhbXfkgP_10local_mock
FNDA:0,_RNCNCNvNtNtCsf2i7I5CTk8o_5govee7backend5local13handle_packet00Cs59FlhbXfkgP_10local_mock
FNDA:0,_RNCNCNvNtNtCsf2i7I5CTk8o_5govee7backend5local13handle_packet0s0_0Cs59FlhbXfkgP_10local_mock
FNDA:0,_RNCNCNvNtNtCsf2i7I5CTk8o_5govee7backend5local13handle_packet0s1_0Cs59FlhbXfkgP_10local_mock
FNDA:0,_RNCNCNvNtNtCsf2i7I5CTk8o_5govee7backend5local13handle_packet0s2_0Cs59FlhbXfkgP_10local_mock
FNDA:10,_RNCNCNvNtNtCsf2i7I5CTk8o_5govee7backend5local13handle_packet0s_0Cs59FlhbXfkgP_10local_mock
FNDA:9,_RNCNCNvNtNtCsf2i7I5CTk8o_5govee7backend5local20handle_scan_response00Cs59FlhbXfkgP_10local_mock
FNDA:9,_RNCNCNvNtNtCsf2i7I5CTk8o_5govee7backend5local20handle_scan_response0s0_0Cs59FlhbXfkgP_10local_mock
FNDA:0,_RNCNCNvNtNtCsf2i7I5CTk8o_5govee7backend5local20handle_scan_response0s1_0Cs59FlhbXfkgP_10local_mock
FNDA:9,_RNCNCNvNtNtCsf2i7I5CTk8o_5govee7backend5local20handle_scan_response0s2_0Cs59FlhbXfkgP_10local_mock
FNDA:0,_RNCNCNvNtNtCsf2i7I5CTk8o_5govee7backend5local20handle_scan_response0s_0Cs59FlhbXfkgP_10local_mock
FNDA:20,_RNCNvMNtNtCsf2i7I5CTk8o_5govee7backend5localNtB4_12LocalBackend3new0Cs59FlhbXfkgP_10local_mock
FNDA:10,_RNCNvNtNtCsf2i7I5CTk8o_5govee7backend5local13handle_packet0Cs59FlhbXfkgP_10local_mock
FNDA:9,_RNCNvNtNtCsf2i7I5CTk8o_5govee7backend5local13receiver_loop0Cs59FlhbXfkgP_10local_mock
FNDA:1,_RNCNvNtNtCsf2i7I5CTk8o_5govee7backend5local17handle_dev_status0Cs59FlhbXfkgP_10local_mock
FNDA:9,_RNCNvNtNtCsf2i7I5CTk8o_5govee7backend5local20handle_scan_response0Cs59FlhbXfkgP_10local_mock
FNF:80
FNH:69
DA:22,0
DA:23,0
DA:24,0
DA:33,10
DA:34,10
DA:35,10
DA:36,0
DA:38,10
DA:39,1
DA:40,1
DA:41,1
DA:42,9
DA:43,9
DA:44,10
DA:130,20
DA:131,20
DA:132,0
DA:133,0
DA:134,0
DA:135,0
DA:136,0
DA:137,20
DA:140,19
DA:141,20
DA:144,20
DA:145,0
DA:147,20
DA:149,20
DA:150,20
DA:151,1
DA:152,1
DA:153,1
DA:154,1
DA:155,1
DA:156,1
DA:157,0
DA:158,0
DA:159,19
DA:161,19
DA:162,19
DA:164,19
DA:168,19
DA:170,19
DA:171,19
DA:172,19
DA:173,19
DA:174,19
DA:176,19
DA:177,19
DA:178,19
DA:179,19
DA:181,19
DA:182,9
DA:183,0
DA:186,19
DA:188,19
DA:189,19
DA:190,19
DA:191,19
DA:192,19
DA:193,19
DA:194,19
DA:195,19
DA:196,19
DA:197,20
DA:209,0
DA:210,0
DA:211,0
DA:212,0
DA:213,0
DA:214,0
DA:217,0
DA:218,0
DA:219,0
DA:220,0
DA:221,0
DA:225,0
DA:226,0
DA:227,0
DA:228,0
DA:230,0
DA:231,0
DA:233,0
DA:234,0
DA:235,0
DA:238,0
DA:239,0
DA:240,0
DA:241,0
DA:243,0
DA:246,0
DA:250,0
DA:251,0
DA:257,8
DA:258,8
DA:259,4
DA:261,4
DA:262,4
DA:264,4
DA:265,4
DA:266,8
DA:269,12
DA:270,12
DA:271,12
DA:272,12
DA:273,12
DA:274,12
DA:275,12
DA:280,9
DA:281,9
DA:282,9
DA:283,9
DA:284,9
DA:285,9
DA:286,9
DA:289,19
DA:290,19
DA:291,19
DA:292,10
DA:293,10
DA:294,10
DA:295,10
DA:296,10
DA:297,10
DA:298,10
DA:299,10
DA:300,10
DA:301,0
DA:302,10
DA:304,0
DA:305,0
DA:311,0
DA:314,10
DA:315,10
DA:316,10
DA:317,10
DA:318,10
DA:319,10
DA:320,10
DA:321,10
DA:322,10
DA:323,10
DA:324,10
DA:325,10
DA:326,10
DA:327,10
DA:329,10
DA:330,10
DA:331,9
DA:332,9
DA:333,9
DA:334,9
DA:336,1
DA:337,1
DA:338,1
DA:339,1
DA:340,1
DA:343,0
DA:347,10
DA:348,10
DA:351,9
DA:352,9
DA:353,9
DA:354,9
DA:355,9
DA:356,9
DA:357,9
DA:358,9
DA:359,9
DA:360,9
DA:361,9
DA:362,9
DA:363,9
DA:368,9
DA:369,9
DA:370,9
DA:372,0
DA:373,0
DA:377,9
DA:379,9
DA:381,9
DA:382,9
DA:383,9
DA:384,9
DA:385,9
DA:386,9
DA:388,9
DA:389,9
DA:391,9
DA:392,9
DA:395,1
DA:396,1
DA:397,1
DA:398,1
DA:399,1
DA:400,1
DA:402,1
DA:403,1
DA:404,1
DA:405,1
DA:406,1
DA:408,1
DA:409,1
DA:412,6
DA:413,6
DA:414,6
DA:416,6
DA:417,6
DA:419,6
DA:420,6
DA:421,6
DA:422,6
DA:423,6
DA:425,0
DA:430,6
DA:431,6
DA:432,6
DA:433,6
DA:434,6
DA:436,6
DA:437,6
DA:438,6
DA:439,6
DA:440,6
DA:442,6
DA:444,6
DA:447,5
DA:448,5
DA:449,3
DA:450,3
DA:451,3
DA:452,2
DA:453,2
DA:454,5
DA:467,1
DA:477,1
DA:613,1
DA:617,1
DA:619,1
DA:623,1
DA:625,1
DA:627,1
DA:629,1
DA:633,1
DA:640,1
DA:644,1
DA:651,1
DA:655,1
DA:657,1
DA:659,1
DA:666,1
DA:670,1
DA:672,1
DA:673,1
DA:674,1
DA:678,0
DA:679,0
DA:680,0
DA:681,0
DA:682,0
DA:683,0
DA:684,0
DA:688,19
DA:689,19
DA:690,19
DA:691,19
DA:695,2
DA:697,1
DA:698,1
DA:699,1
DA:701,1
DA:702,1
DA:703,1
DA:710,1
DA:711,1
DA:712,1
DA:713,1
DA:714,1
DA:715,1
DA:716,1
DA:717,1
DA:718,1
DA:721,1
DA:722,1
DA:723,1
DA:724,1
DA:726,1
DA:727,1
DA:728,1
DA:730,1
DA:731,1
DA:732,1
DA:735,1
DA:736,1
DA:737,1
DA:738,1
DA:739,1
DA:740,1
DA:743,1
DA:744,1
DA:745,1
DA:746,1
DA:747,1
DA:748,1
DA:749,1
DA:752,1
DA:753,1
DA:754,1
DA:755,1
DA:756,1
DA:757,1
DA:760,1
DA:761,1
DA:762,1
DA:764,1
DA:765,1
DA:768,1
DA:769,1
DA:770,1
DA:771,1
DA:772,1
DA:775,1
DA:776,1
DA:777,1
DA:780,1
DA:781,1
DA:782,1
DA:783,1
DA:784,1
DA:787,1
DA:788,1
DA:789,1
DA:792,1
DA:793,1
DA:794,1
DA:795,1
DA:796,1
DA:799,1
DA:800,1
DA:801,1
DA:804,1
DA:805,1
DA:808,1
DA:809,1
DA:810,1
DA:811,1
DA:812,1
DA:813,1
DA:814,1
DA:815,1
DA:818,1
DA:819,1
DA:820,1
DA:821,1
DA:822,1
DA:823,1
DA:824,1
DA:825,1
DA:826,1
DA:829,1
DA:830,1
DA:831,1
DA:832,1
DA:833,1
DA:834,1
DA:835,1
DA:837,1
DA:838,1
DA:839,1
DA:840,1
DA:841,1
DA:842,1
DA:843,1
DA:845,1
DA:846,1
DA:847,1
DA:848,1
DA:849,1
DA:850,1
DA:853,1
DA:854,1
DA:855,1
DA:856,1
DA:859,1
DA:860,1
DA:861,1
DA:862,1
DA:863,1
DA:866,1
DA:867,1
DA:868,1
DA:869,1
DA:872,1
DA:873,1
DA:874,1
DA:875,1
DA:876,1
DA:879,1
DA:880,1
DA:881,1
DA:882,1
DA:885,1
DA:886,1
DA:887,1
DA:888,1
DA:889,1
DA:890,1
DA:893,1
DA:894,1
DA:895,1
DA:896,1
DA:899,1
DA:900,1
DA:901,1
DA:902,1
DA:903,1
DA:904,1
DA:905,1
DA:906,1
DA:910,1
DA:911,1
DA:912,1
DA:913,1
DA:914,1
DA:915,1
DA:916,1
DA:919,1
DA:920,1
DA:921,1
DA:922,1
DA:923,1
DA:924,1
DA:925,1
DA:926,1
DA:930,1
DA:931,1
DA:932,1
DA:933,1
DA:934,1
DA:935,1
DA:936,1
DA:939,1
DA:940,1
DA:941,1
DA:942,1
DA:943,1
DA:946,1
DA:947,1
DA:948,1
DA:949,1
DA:950,1
DA:953,1
DA:954,1
DA:955,1
DA:958,1
DA:959,1
DA:960,1
DA:963,1
DA:964,1
DA:965,1
DA:968,1
DA:969,1
DA:970,1
DA:971,1
BRF:0
BRH:0
LF:496
LH:432
end_of_record
SF:/Users/waku/dev/govee/src/backend/mock.rs
FN:83,_RNCNCNvXs_NtNtCseqgZqxOBWDO_5govee7backend4mockNtB8_11MockBackendNtBa_12GoveeBackend9get_state00Bc_
FN:58,_RNvMNtNtCseqgZqxOBWDO_5govee7backend4mockNtB2_11MockBackend10with_error
FN:47,_RNvMNtNtCseqgZqxOBWDO_5govee7backend4mockNtB2_11MockBackend10with_state
FN:64,_RNvMNtNtCseqgZqxOBWDO_5govee7backend4mockNtB2_11MockBackend11check_error
FN:42,_RNvMNtNtCseqgZqxOBWDO_5govee7backend4mockNtB2_11MockBackend12with_devices
FN:52,_RNvMNtNtCseqgZqxOBWDO_5govee7backend4mockNtB2_11MockBackend17with_backend_type
FN:33,_RNvMNtNtCseqgZqxOBWDO_5govee7backend4mockNtB2_11MockBackend3new
FN:106,_RNvXs_NtNtCseqgZqxOBWDO_5govee7backend4mockNtB4_11MockBackendNtB6_12GoveeBackend11list_scenes
FN:155,_RNvXs_NtNtCseqgZqxOBWDO_5govee7backend4mockNtB4_11MockBackendNtB6_12GoveeBackend12backend_type
FN:75,_RNvXs_NtNtCseqgZqxOBWDO_5govee7backend4mockNtB4_11MockBackendNtB6_12GoveeBackend12list_devices
FN:118,_RNvXs_NtNtCseqgZqxOBWDO_5govee7backend4mockNtB4_11MockBackendNtB6_12GoveeBackend13set_diy_scene
FN:151,_RNvXs_NtNtCseqgZqxOBWDO_5govee7backend4mockNtB4_11MockBackendNtB6_12GoveeBackend13set_work_mode
FN:91,_RNvXs_NtNtCseqgZqxOBWDO_5govee7backend4mockNtB4_11MockBackendNtB6_12GoveeBackend14set_brightness
FN:101,_RNvXs_NtNtCseqgZqxOBWDO_5govee7backend4mockNtB4_11MockBackendNtB6_12GoveeBackend14set_color_temp
FN:114,_RNvXs_NtNtCseqgZqxOBWDO_5govee7backend4mockNtB4_11MockBackendNtB6_12GoveeBackend15list_diy_scenes
FN:142,_RNvXs_NtNtCseqgZqxOBWDO_5govee7backend4mockNtB4_11MockBackendNtB6_12GoveeBackend15list_work_modes
FN:127,_RNvXs_NtNtCseqgZqxOBWDO_5govee7backend4mockNtB4_11MockBackendNtB6_12GoveeBackend17set_segment_color
FN:137,_RNvXs_NtNtCseqgZqxOBWDO_5govee7backend4mockNtB4_11MockBackendNtB6_12GoveeBackend22set_segment_brightness
FN:79,_RNvXs_NtNtCseqgZqxOBWDO_5govee7backend4mockNtB4_11MockBackendNtB6_12GoveeBackend9get_state
FN:96,_RNvXs_NtNtCseqgZqxOBWDO_5govee7backend4mockNtB4_11MockBackendNtB6_12GoveeBackend9set_color
FN:86,_RNvXs_NtNtCseqgZqxOBWDO_5govee7backend4mockNtB4_11MockBackendNtB6_12GoveeBackend9set_power
FN:110,_RNvXs_NtNtCseqgZqxOBWDO_5govee7backend4mockNtB4_11MockBackendNtB6_12GoveeBackend9set_scene
FNDA:5,_RNCNCNvXs_NtNtCseqgZqxOBWDO_5govee7backend4mockNtB8_11MockBackendNtBa_12GoveeBackend9get_state00Bc_
FNDA:2,_RNvMNtNtCseqgZqxOBWDO_5govee7backend4mockNtB2_11MockBackend10with_error
FNDA:27,_RNvMNtNtCseqgZqxOBWDO_5govee7backend4mockNtB2_11MockBackend10with_state
FNDA:103,_RNvMNtNtCseqgZqxOBWDO_5govee7backend4mockNtB2_11MockBackend11check_error
FNDA:78,_RNvMNtNtCseqgZqxOBWDO_5govee7backend4mockNtB2_11MockBackend12with_devices
FNDA:78,_RNvMNtNtCseqgZqxOBWDO_5govee7backend4mockNtB2_11MockBackend17with_backend_type
FNDA:87,_RNvMNtNtCseqgZqxOBWDO_5govee7backend4mockNtB2_11MockBackend3new
FNDA:1,_RNvXs_NtNtCseqgZqxOBWDO_5govee7backend4mockNtB4_11MockBackendNtB6_12GoveeBackend11list_scenes
FNDA:15,_RNvXs_NtNtCseqgZqxOBWDO_5govee7backend4mockNtB4_11MockBackendNtB6_12GoveeBackend12backend_type
FNDA:80,_RNvXs_NtNtCseqgZqxOBWDO_5govee7backend4mockNtB4_11MockBackendNtB6_12GoveeBackend12list_devices
FNDA:0,_RNvXs_NtNtCseqgZqxOBWDO_5govee7backend4mockNtB4_11MockBackendNtB6_12GoveeBackend13set_diy_scene
FNDA:0,_RNvXs_NtNtCseqgZqxOBWDO_5govee7backend4mockNtB4_11MockBackendNtB6_12GoveeBackend13set_work_mode
FNDA:17,_RNvXs_NtNtCseqgZqxOBWDO_5govee7backend4mockNtB4_11MockBackendNtB6_12GoveeBackend14set_brightness
FNDA:11,_RNvXs_NtNtCseqgZqxOBWDO_5govee7backend4mockNtB4_11MockBackendNtB6_12GoveeBackend14set_color_temp
FNDA:0,_RNvXs_NtNtCseqgZqxOBWDO_5govee7backend4mockNtB4_11MockBackendNtB6_12GoveeBackend15list_diy_scenes
FNDA:0,_RNvXs_NtNtCseqgZqxOBWDO_5govee7backend4mockNtB4_11MockBackendNtB6_12GoveeBackend15list_work_modes
FNDA:0,_RNvXs_NtNtCseqgZqxOBWDO_5govee7backend4mockNtB4_11MockBackendNtB6_12GoveeBackend17set_segment_color
FNDA:0,_RNvXs_NtNtCseqgZqxOBWDO_5govee7backend4mockNtB4_11MockBackendNtB6_12GoveeBackend22set_segment_brightness
FNDA:58,_RNvXs_NtNtCseqgZqxOBWDO_5govee7backend4mockNtB4_11MockBackendNtB6_12GoveeBackend9get_state
FNDA:10,_RNvXs_NtNtCseqgZqxOBWDO_5govee7backend4mockNtB4_11MockBackendNtB6_12GoveeBackend9set_color
FNDA:7,_RNvXs_NtNtCseqgZqxOBWDO_5govee7backend4mockNtB4_11MockBackendNtB6_12GoveeBackend9set_power
FNDA:1,_RNvXs_NtNtCseqgZqxOBWDO_5govee7backend4mockNtB4_11MockBackendNtB6_12GoveeBackend9set_scene
FNF:22
FNH:16
DA:33,87
DA:34,87
DA:35,87
DA:36,87
DA:37,87
DA:38,87
DA:39,87
DA:40,87
DA:42,78
DA:43,78
DA:44,78
DA:45,78
DA:47,27
DA:48,27
DA:49,27
DA:50,27
DA:52,78
DA:53,78
DA:54,78
DA:55,78
DA:58,2
DA:59,2
DA:60,2
DA:61,2
DA:64,103
DA:65,103
DA:66,103
DA:67,9
DA:68,94
DA:70,103
DA:75,80
DA:77,80
DA:79,58
DA:83,5
DA:84,58
DA:86,7
DA:89,7
DA:91,17
DA:94,17
DA:96,10
DA:99,10
DA:101,11
DA:104,11
DA:106,1
DA:108,1
DA:110,1
DA:112,1
DA:114,0
DA:116,0
DA:118,0
DA:120,0
DA:127,0
DA:130,0
DA:137,0
DA:140,0
DA:142,0
DA:144,0
DA:151,0
DA:153,0
DA:155,15
DA:156,15
DA:157,15
BRF:0
BRH:0
LF:62
LH:50
end_of_record
SF:/Users/waku/dev/govee/src/backend/mod.rs
FN:83,_RINvNtNtCseqgZqxOBWDO_5govee7backend5tests17__assert_send_syncNtNtB4_4mock11MockBackendEB6_
FN:182,_RNCNvNtNtCseqgZqxOBWDO_5govee7backend5testss_21trait_object_dispatch0B7_
FN:92,_RNCNvNtNtCseqgZqxOBWDO_5govee7backend5testss_23mock_list_devices_empty0B7_
FN:158,_RNCNvNtNtCseqgZqxOBWDO_5govee7backend5testss_23mock_set_scene_succeeds0B7_
FN:132,_RNCNvNtNtCseqgZqxOBWDO_5govee7backend5testss_24mock_get_state_not_found0B7_
FN:140,_RNCNvNtNtCseqgZqxOBWDO_5govee7backend5testss_27mock_set_operations_succeed0B7_
FN:99,_RNCNvNtNtCseqgZqxOBWDO_5govee7backend5testss_30mock_list_devices_with_entries0B7_
FN:150,_RNCNvNtNtCseqgZqxOBWDO_5govee7backend5testss_30mock_list_scenes_returns_empty0B7_
FN:114,_RNCNvNtNtCseqgZqxOBWDO_5govee7backend5testss_33mock_get_state_returns_configured0B7_
FN:84,_RNvNtNtCseqgZqxOBWDO_5govee7backend5tests19__assert_object_safe
FN:87,_RNvNtNtCseqgZqxOBWDO_5govee7backend5testss_18trait_is_send_sync
FN:182,_RNvNtNtCseqgZqxOBWDO_5govee7backend5testss_21trait_object_dispatch
FN:92,_RNvNtNtCseqgZqxOBWDO_5govee7backend5testss_23mock_list_devices_empty
FN:158,_RNvNtNtCseqgZqxOBWDO_5govee7backend5testss_23mock_set_scene_succeeds
FN:132,_RNvNtNtCseqgZqxOBWDO_5govee7backend5testss_24mock_get_state_not_found
FN:140,_RNvNtNtCseqgZqxOBWDO_5govee7backend5testss_27mock_set_operations_succeed
FN:176,_RNvNtNtCseqgZqxOBWDO_5govee7backend5testss_30mock_backend_type_configurable
FN:99,_RNvNtNtCseqgZqxOBWDO_5govee7backend5testss_30mock_list_devices_with_entries
FN:150,_RNvNtNtCseqgZqxOBWDO_5govee7backend5testss_30mock_list_scenes_returns_empty
FN:170,_RNvNtNtCseqgZqxOBWDO_5govee7backend5testss_31mock_backend_type_default_cloud
FN:114,_RNvNtNtCseqgZqxOBWDO_5govee7backend5testss_33mock_get_state_returns_configured
FNDA:1,_RINvNtNtCseqgZqxOBWDO_5govee7backend5tests17__assert_send_syncNtNtB4_4mock11MockBackendEB6_
FNDA:1,_RNCNvNtNtCseqgZqxOBWDO_5govee7backend5testss_21trait_object_dispatch0B7_
FNDA:1,_RNCNvNtNtCseqgZqxOBWDO_5govee7backend5testss_23mock_list_devices_empty0B7_
FNDA:1,_RNCNvNtNtCseqgZqxOBWDO_5govee7backend5testss_23mock_set_scene_succeeds0B7_
FNDA:1,_RNCNvNtNtCseqgZqxOBWDO_5govee7backend5testss_24mock_get_state_not_found0B7_
FNDA:1,_RNCNvNtNtCseqgZqxOBWDO_5govee7backend5testss_27mock_set_operations_succeed0B7_
FNDA:1,_RNCNvNtNtCseqgZqxOBWDO_5govee7backend5testss_30mock_list_devices_with_entries0B7_
FNDA:1,_RNCNvNtNtCseqgZqxOBWDO_5govee7backend5testss_30mock_list_scenes_returns_empty0B7_
FNDA:1,_RNCNvNtNtCseqgZqxOBWDO_5govee7backend5testss_33mock_get_state_returns_configured0B7_
FNDA:0,_RNvNtNtCseqgZqxOBWDO_5govee7backend5tests19__assert_object_safe
FNDA:1,_RNvNtNtCseqgZqxOBWDO_5govee7backend5testss_18trait_is_send_sync
FNDA:1,_RNvNtNtCseqgZqxOBWDO_5govee7backend5testss_21trait_object_dispatch
FNDA:1,_RNvNtNtCseqgZqxOBWDO_5govee7backend5testss_23mock_list_devices_empty
FNDA:1,_RNvNtNtCseqgZqxOBWDO_5govee7backend5testss_23mock_set_scene_succeeds
FNDA:1,_RNvNtNtCseqgZqxOBWDO_5govee7backend5testss_24mock_get_state_not_found
FNDA:1,_RNvNtNtCseqgZqxOBWDO_5govee7backend5testss_27mock_set_operations_succeed
FNDA:1,_RNvNtNtCseqgZqxOBWDO_5govee7backend5testss_30mock_backend_type_configurable
FNDA:1,_RNvNtNtCseqgZqxOBWDO_5govee7backend5testss_30mock_list_devices_with_entries
FNDA:1,_RNvNtNtCseqgZqxOBWDO_5govee7backend5testss_30mock_list_scenes_returns_empty
FNDA:1,_RNvNtNtCseqgZqxOBWDO_5govee7backend5testss_31mock_backend_type_default_cloud
FNDA:1,_RNvNtNtCseqgZqxOBWDO_5govee7backend5testss_33mock_get_state_returns_configured
FNF:21
FNH:20
DA:83,1
DA:84,0
DA:87,1
DA:88,1
DA:89,1
DA:92,1
DA:93,1
DA:94,1
DA:95,1
DA:96,1
DA:99,1
DA:100,1
DA:101,1
DA:102,1
DA:103,1
DA:104,1
DA:105,1
DA:106,1
DA:107,1
DA:108,1
DA:109,1
DA:110,1
DA:111,1
DA:114,1
DA:115,1
DA:118,1
DA:119,1
DA:121,1
DA:123,1
DA:124,1
DA:125,1
DA:126,1
DA:127,1
DA:128,1
DA:129,1
DA:132,1
DA:133,1
DA:134,1
DA:135,1
DA:136,1
DA:137,1
DA:140,1
DA:141,1
DA:142,1
DA:143,1
DA:144,1
DA:145,1
DA:146,1
DA:147,1
DA:150,1
DA:151,1
DA:152,1
DA:153,1
DA:154,1
DA:155,1
DA:158,1
DA:159,1
DA:160,1
DA:161,1
DA:162,1
DA:163,1
DA:164,1
DA:165,1
DA:166,1
DA:167,1
DA:170,1
DA:171,1
DA:172,1
DA:173,1
DA:176,1
DA:177,1
DA:178,1
DA:179,1
DA:182,1
DA:183,1
DA:184,1
DA:185,1
DA:186,1
DA:187,1
DA:188,1
BRF:0
BRH:0
LF:96
LH:95
end_of_record
SF:/Users/waku/dev/govee/src/capability.rs
FN:30,_RINvXNtCsf2i7I5CTk8o_5govee10capabilityNtB3_20CapabilityParametersNtNtCskhgUCy5GPyx_10serde_core2de11Deserialize11deserializeINtNvNtNtCs8qMPdw6VUAA_5serde7private2de13missing_field24MissingFieldDeserializerNtNtCs2gIcK9cuZ92_10serde_json5error5ErrorEEB5_
FN:30,_RINvXNtCsf2i7I5CTk8o_5govee10capabilityNtB3_20CapabilityParametersNtNtCskhgUCy5GPyx_10serde_core2de11Deserialize11deserializeNtNtCs2gIcK9cuZ92_10serde_json5value5ValueEB5_
FN:32,_RNCINvXNtCsf2i7I5CTk8o_5govee10capabilityNtB5_20CapabilityParametersNtNtCskhgUCy5GPyx_10serde_core2de11Deserialize11deserializeINtNvNtNtCs8qMPdw6VUAA_5serde7private2de13missing_field24MissingFieldDeserializerNtNtCs2gIcK9cuZ92_10serde_json5error5ErrorEE0B7_
FN:32,_RNCINvXNtCsf2i7I5CTk8o_5govee10capabilityNtB5_20CapabilityParametersNtNtCskhgUCy5GPyx_10serde_core2de11Deserialize11deserializeNtNtCs2gIcK9cuZ92_10serde_json5value5ValueE0B7_
FN:207,_RNvNtNtCseqgZqxOBWDO_5govee10capability5testss_23dynamic_scene_value_diy
FN:194,_RNvNtNtCseqgZqxOBWDO_5govee10capability5testss_26dynamic_scene_value_preset
FN:217,_RNvNtNtCseqgZqxOBWDO_5govee10capability5testss_27capability_state_round_trip
FN:240,_RNvNtNtCseqgZqxOBWDO_5govee10capability5testss_31capability_value_rgb_serializes
FN:137,_RNvNtNtCseqgZqxOBWDO_5govee10capability5testss_34capability_parameters_enum_variant
FN:233,_RNvNtNtCseqgZqxOBWDO_5govee10capability5testss_34capability_value_on_off_serializes
FN:167,_RNvNtNtCseqgZqxOBWDO_5govee10capability5testss_36capability_parameters_struct_variant
FN:152,_RNvNtNtCseqgZqxOBWDO_5govee10capability5testss_37capability_parameters_integer_variant
FN:272,_RNvNtNtCseqgZqxOBWDO_5govee10capability5testss_37capability_value_diy_scene_serializes
FN:254,_RNvNtNtCseqgZqxOBWDO_5govee10capability5testss_38capability_value_brightness_serializes
FN:247,_RNvNtNtCseqgZqxOBWDO_5govee10capability5testss_40capability_value_color_temp_k_serializes
FN:261,_RNvNtNtCseqgZqxOBWDO_5govee10capability5testss_49capability_value_dynamic_scene_preset_round_trips
FN:181,_RNvNtNtCseqgZqxOBWDO_5govee10capability5testss_55capability_parameters_unknown_variant_preserves_payload
FN:30,_RINvXNtCseqgZqxOBWDO_5govee10capabilityNtB3_20CapabilityParametersNtNtCskhgUCy5GPyx_10serde_core2de11Deserialize11deserializeINtNvNtNtCs8qMPdw6VUAA_5serde7private2de13missing_field24MissingFieldDeserializerNtNtCs2gIcK9cuZ92_10serde_json5error5ErrorEEB5_
FN:30,_RINvXNtCseqgZqxOBWDO_5govee10capabilityNtB3_20CapabilityParametersNtNtCskhgUCy5GPyx_10serde_core2de11Deserialize11deserializeNtNtCs2gIcK9cuZ92_10serde_json5value5ValueEB5_
FN:30,_RINvXNtCseqgZqxOBWDO_5govee10capabilityNtB3_20CapabilityParametersNtNtCskhgUCy5GPyx_10serde_core2de11Deserialize11deserializeQINtNtCs2gIcK9cuZ92_10serde_json2de12DeserializerNtNtB25_4read7StrReadEEB5_
FN:32,_RNCINvXNtCseqgZqxOBWDO_5govee10capabilityNtB5_20CapabilityParametersNtNtCskhgUCy5GPyx_10serde_core2de11Deserialize11deserializeINtNvNtNtCs8qMPdw6VUAA_5serde7private2de13missing_field24MissingFieldDeserializerNtNtCs2gIcK9cuZ92_10serde_json5error5ErrorEE0B7_
FN:32,_RNCINvXNtCseqgZqxOBWDO_5govee10capabilityNtB5_20CapabilityParametersNtNtCskhgUCy5GPyx_10serde_core2de11Deserialize11deserializeNtNtCs2gIcK9cuZ92_10serde_json5value5ValueE0B7_
FN:32,_RNCINvXNtCseqgZqxOBWDO_5govee10capabilityNtB5_20CapabilityParametersNtNtCskhgUCy5GPyx_10serde_core2de11Deserialize11deserializeQINtNtCs2gIcK9cuZ92_10serde_json2de12DeserializerNtNtB27_4read7StrReadEE0B7_
FNDA:0,_RINvXNtCsf2i7I5CTk8o_5govee10capabilityNtB3_20CapabilityParametersNtNtCskhgUCy5GPyx_10serde_core2de11Deserialize11deserializeINtNvNtNtCs8qMPdw6VUAA_5serde7private2de13missing_field24MissingFieldDeserializerNtNtCs2gIcK9cuZ92_10serde_json5error5ErrorEEB5_
FNDA:10,_RINvXNtCsf2i7I5CTk8o_5govee10capabilityNtB3_20CapabilityParametersNtNtCskhgUCy5GPyx_10serde_core2de11Deserialize11deserializeNtNtCs2gIcK9cuZ92_10serde_json5value5ValueEB5_
FNDA:0,_RNCINvXNtCsf2i7I5CTk8o_5govee10capabilityNtB5_20CapabilityParametersNtNtCskhgUCy5GPyx_10serde_core2de11Deserialize11deserializeINtNvNtNtCs8qMPdw6VUAA_5serde7private2de13missing_field24MissingFieldDeserializerNtNtCs2gIcK9cuZ92_10serde_json5error5ErrorEE0B7_
FNDA:10,_RNCINvXNtCsf2i7I5CTk8o_5govee10capabilityNtB5_20CapabilityParametersNtNtCskhgUCy5GPyx_10serde_core2de11Deserialize11deserializeNtNtCs2gIcK9cuZ92_10serde_json5value5ValueE0B7_
FNDA:1,_RNvNtNtCseqgZqxOBWDO_5govee10capability5testss_23dynamic_scene_value_diy
FNDA:1,_RNvNtNtCseqgZqxOBWDO_5govee10capability5testss_26dynamic_scene_value_preset
FNDA:1,_RNvNtNtCseqgZqxOBWDO_5govee10capability5testss_27capability_state_round_trip
FNDA:1,_RNvNtNtCseqgZqxOBWDO_5govee10capability5testss_31capability_value_rgb_serializes
FNDA:1,_RNvNtNtCseqgZqxOBWDO_5govee10capability5testss_34capability_parameters_enum_variant
FNDA:1,_RNvNtNtCseqgZqxOBWDO_5govee10capability5testss_34capability_value_on_off_serializes
FNDA:1,_RNvNtNtCseqgZqxOBWDO_5govee10capability5testss_36capability_parameters_struct_variant
FNDA:1,_RNvNtNtCseqgZqxOBWDO_5govee10capability5testss_37capability_parameters_integer_variant
FNDA:1,_RNvNtNtCseqgZqxOBWDO_5govee10capability5testss_37capability_value_diy_scene_serializes
FNDA:1,_RNvNtNtCseqgZqxOBWDO_5govee10capability5testss_38capability_value_brightness_serializes
FNDA:1,_RNvNtNtCseqgZqxOBWDO_5govee10capability5testss_40capability_value_color_temp_k_serializes
FNDA:1,_RNvNtNtCseqgZqxOBWDO_5govee10capability5testss_49capability_value_dynamic_scene_preset_round_trips
FNDA:1,_RNvNtNtCseqgZqxOBWDO_5govee10capability5testss_55capability_parameters_unknown_variant_preserves_payload
FNDA:0,_RINvXNtCseqgZqxOBWDO_5govee10capabilityNtB3_20CapabilityParametersNtNtCskhgUCy5GPyx_10serde_core2de11Deserialize11deserializeINtNvNtNtCs8qMPdw6VUAA_5serde7private2de13missing_field24MissingFieldDeserializerNtNtCs2gIcK9cuZ92_10serde_json5error5ErrorEEB5_
FNDA:0,_RINvXNtCseqgZqxOBWDO_5govee10capabilityNtB3_20CapabilityParametersNtNtCskhgUCy5GPyx_10serde_core2de11Deserialize11deserializeNtNtCs2gIcK9cuZ92_10serde_json5value5ValueEB5_
FNDA:4,_RINvXNtCseqgZqxOBWDO_5govee10capabilityNtB3_20CapabilityParametersNtNtCskhgUCy5GPyx_10serde_core2de11Deserialize11deserializeQINtNtCs2gIcK9cuZ92_10serde_json2de12DeserializerNtNtB25_4read7StrReadEEB5_
FNDA:0,_RNCINvXNtCseqgZqxOBWDO_5govee10capabilityNtB5_20CapabilityParametersNtNtCskhgUCy5GPyx_10serde_core2de11Deserialize11deserializeINtNvNtNtCs8qMPdw6VUAA_5serde7private2de13missing_field24MissingFieldDeserializerNtNtCs2gIcK9cuZ92_10serde_json5error5ErrorEE0B7_
FNDA:0,_RNCINvXNtCseqgZqxOBWDO_5govee10capabilityNtB5_20CapabilityParametersNtNtCskhgUCy5GPyx_10serde_core2de11Deserialize11deserializeNtNtCs2gIcK9cuZ92_10serde_json5value5ValueE0B7_
FNDA:4,_RNCINvXNtCseqgZqxOBWDO_5govee10capabilityNtB5_20CapabilityParametersNtNtCskhgUCy5GPyx_10serde_core2de11Deserialize11deserializeQINtNtCs2gIcK9cuZ92_10serde_json2de12DeserializerNtNtB27_4read7StrReadEE0B7_
FNF:15
FNH:15
DA:30,14
DA:31,14
DA:32,14
DA:33,14
DA:34,10
DA:35,10
DA:36,10
DA:38,4
DA:39,1
DA:40,1
DA:41,1
DA:43,3
DA:44,1
DA:45,1
DA:46,1
DA:48,2
DA:50,14
DA:137,1
DA:138,1
DA:139,1
DA:140,1
DA:141,1
DA:142,1
DA:143,1
DA:144,1
DA:145,1
DA:147,0
DA:149,1
DA:152,1
DA:153,1
DA:154,1
DA:155,1
DA:156,1
DA:157,1
DA:158,1
DA:159,1
DA:160,1
DA:162,0
DA:164,1
DA:167,1
DA:168,1
DA:169,1
DA:170,1
DA:171,1
DA:172,1
DA:173,1
DA:174,1
DA:176,0
DA:178,1
DA:181,1
DA:182,1
DA:183,1
DA:184,1
DA:185,1
DA:186,1
DA:187,1
DA:189,0
DA:191,1
DA:194,1
DA:195,1
DA:196,1
DA:197,1
DA:198,1
DA:199,1
DA:200,1
DA:202,0
DA:204,1
DA:207,1
DA:208,1
DA:209,1
DA:210,1
DA:211,1
DA:212,0
DA:214,1
DA:217,1
DA:218,1
DA:219,1
DA:220,1
DA:221,1
DA:222,1
DA:223,1
DA:224,1
DA:225,1
DA:226,1
DA:227,1
DA:228,1
DA:229,1
DA:230,1
DA:233,1
DA:234,1
DA:235,1
DA:236,1
DA:237,1
DA:240,1
DA:241,1
DA:242,1
DA:243,1
DA:244,1
DA:247,1
DA:248,1
DA:249,1
DA:250,1
DA:251,1
DA:254,1
DA:255,1
DA:256,1
DA:257,1
DA:258,1
DA:261,1
DA:262,1
DA:263,1
DA:265,1
DA:267,1
DA:269,1
DA:272,1
DA:273,1
DA:274,1
DA:275,1
DA:276,1
BRF:0
BRH:0
LF:120
LH:114
end_of_record
SF:/Users/waku/dev/govee/src/config.rs
FN:218,_RNvMs0_NtCsf2i7I5CTk8o_5govee6configNtB5_6Config23discovery_interval_secs
FN:90,_RNvMs0_NtCsf2i7I5CTk8o_5govee6configNtB5_6Config3new
FN:185,_RNvMs0_NtCsf2i7I5CTk8o_5govee6configNtB5_6Config4load
FN:226,_RNvMs0_NtCsf2i7I5CTk8o_5govee6configNtB5_6Config6groups
FN:230,_RNvMs0_NtCsf2i7I5CTk8o_5govee6configNtB5_6Config6scenes
FN:222,_RNvMs0_NtCsf2i7I5CTk8o_5govee6configNtB5_6Config7aliases
FN:210,_RNvMs0_NtCsf2i7I5CTk8o_5govee6configNtB5_6Config7api_key
FN:214,_RNvMs0_NtCsf2i7I5CTk8o_5govee6configNtB5_6Config7backend
FN:111,_RNvMs0_NtCsf2i7I5CTk8o_5govee6configNtB5_6Config8validate
FN:71,_RNvNtCsf2i7I5CTk8o_5govee6config26default_discovery_interval
FN:271,_RNvXs2_NtCsf2i7I5CTk8o_5govee6configNtB5_6ConfigNtNtCs85QQFkKrybG_4core3fmt5Debug3fmt
FN:76,_RNvXs_NtCsf2i7I5CTk8o_5govee6configNtB4_6ConfigNtNtCs85QQFkKrybG_4core7default7Default7default
FN:236,_RINvXs1_NtCsf2i7I5CTk8o_5govee6configNtB6_6ConfigNtNtCskhgUCy5GPyx_10serde_core2de11Deserialize11deserializeNtNtNtCseKvf8XA4Zj4_4toml2de12deserializer12DeserializerEB8_
FN:124,_RNCNvMs0_NtCsf2i7I5CTk8o_5govee6configNtB7_6Config8validate0B9_
FN:139,_RNCNvMs0_NtCsf2i7I5CTk8o_5govee6configNtB7_6Config8validates_0B9_
FN:288,_RNvNtNtCseqgZqxOBWDO_5govee6config5testss_14config_default
FN:298,_RNvNtNtCseqgZqxOBWDO_5govee6config5testss_16config_new_valid
FN:329,_RNvNtNtCseqgZqxOBWDO_5govee6config5testss_17config_parse_full
FN:354,_RNvNtNtCseqgZqxOBWDO_5govee6config5testss_20config_parse_minimal
FN:546,_RNvNtNtCseqgZqxOBWDO_5govee6config5testss_22config_new_with_scenes
FN:363,_RNvNtNtCseqgZqxOBWDO_5govee6config5testss_23config_parse_local_only
FN:415,_RNvNtNtCseqgZqxOBWDO_5govee6config5testss_24config_load_missing_file
FN:370,_RNvNtNtCseqgZqxOBWDO_5govee6config5testss_25config_parse_invalid_toml
FN:448,_RNvNtNtCseqgZqxOBWDO_5govee6config5testss_25config_with_scenes_parses
FN:313,_RNvNtNtCseqgZqxOBWDO_5govee6config5testss_27config_new_invalid_interval
FN:392,_RNvNtNtCseqgZqxOBWDO_5govee6config5testss_28config_debug_redacts_api_key
FN:439,_RNvNtNtCseqgZqxOBWDO_5govee6config5testss_30config_discovery_interval_zero
FN:376,_RNvNtNtCseqgZqxOBWDO_5govee6config5testss_32config_serialize_redacts_api_key
FN:495,_RNvNtNtCseqgZqxOBWDO_5govee6config5testss_34config_group_name_invalid_rejected
FN:516,_RNvNtNtCseqgZqxOBWDO_5govee6config5testss_34config_scene_invalid_name_rejected
FN:408,_RNvNtNtCseqgZqxOBWDO_5govee6config5testss_35config_debug_shows_none_when_no_key
FN:425,_RNvNtNtCseqgZqxOBWDO_5govee6config5testss_36config_discovery_interval_at_minimum
FN:432,_RNvNtNtCseqgZqxOBWDO_5govee6config5testss_39config_discovery_interval_below_minimum
FN:473,_RNvNtNtCseqgZqxOBWDO_5govee6config5testss_41config_scene_both_color_and_temp_rejected
FN:505,_RNvNtNtCseqgZqxOBWDO_5govee6config5testss_41config_scene_brightness_over_100_rejected
FN:485,_RNvNtNtCseqgZqxOBWDO_5govee6config5testss_44config_scene_neither_color_nor_temp_rejected
FN:527,_RNvNtNtCseqgZqxOBWDO_5govee6config5testss_45config_scene_color_temp_out_of_range_rejected
FN:218,_RNvMs0_NtCseqgZqxOBWDO_5govee6configNtB5_6Config23discovery_interval_secs
FN:90,_RNvMs0_NtCseqgZqxOBWDO_5govee6configNtB5_6Config3new
FN:185,_RNvMs0_NtCseqgZqxOBWDO_5govee6configNtB5_6Config4load
FN:226,_RNvMs0_NtCseqgZqxOBWDO_5govee6configNtB5_6Config6groups
FN:230,_RNvMs0_NtCseqgZqxOBWDO_5govee6configNtB5_6Config6scenes
FN:222,_RNvMs0_NtCseqgZqxOBWDO_5govee6configNtB5_6Config7aliases
FN:210,_RNvMs0_NtCseqgZqxOBWDO_5govee6configNtB5_6Config7api_key
FN:214,_RNvMs0_NtCseqgZqxOBWDO_5govee6configNtB5_6Config7backend
FN:111,_RNvMs0_NtCseqgZqxOBWDO_5govee6configNtB5_6Config8validate
FN:71,_RNvNtCseqgZqxOBWDO_5govee6config26default_discovery_interval
FN:271,_RNvXs2_NtCseqgZqxOBWDO_5govee6configNtB5_6ConfigNtNtCs85QQFkKrybG_4core3fmt5Debug3fmt
FN:76,_RNvXs_NtCseqgZqxOBWDO_5govee6configNtB4_6ConfigNtNtCs85QQFkKrybG_4core7default7Default7default
FN:54,_RINvXNtCseqgZqxOBWDO_5govee6configNtB3_6ConfigNtNtCskhgUCy5GPyx_10serde_core3ser9Serialize9serializeQINtNtCs2gIcK9cuZ92_10serde_json3ser10SerializerQINtNtCsdFlNUEO95cG_5alloc3vec3VechEEEB5_
FN:236,_RINvXs1_NtCseqgZqxOBWDO_5govee6configNtB6_6ConfigNtNtCskhgUCy5GPyx_10serde_core2de11Deserialize11deserializeNtNtNtCseKvf8XA4Zj4_4toml2de12deserializer12DeserializerEB8_
FN:124,_RNCNvMs0_NtCseqgZqxOBWDO_5govee6configNtB7_6Config8validate0B9_
FN:139,_RNCNvMs0_NtCseqgZqxOBWDO_5govee6configNtB7_6Config8validates_0B9_
FNDA:0,_RNvMs0_NtCsf2i7I5CTk8o_5govee6configNtB5_6Config23discovery_interval_secs
FNDA:0,_RNvMs0_NtCsf2i7I5CTk8o_5govee6configNtB5_6Config3new
FNDA:0,_RNvMs0_NtCsf2i7I5CTk8o_5govee6configNtB5_6Config4load
FNDA:0,_RNvMs0_NtCsf2i7I5CTk8o_5govee6configNtB5_6Config6groups
FNDA:0,_RNvMs0_NtCsf2i7I5CTk8o_5govee6configNtB5_6Config6scenes
FNDA:0,_RNvMs0_NtCsf2i7I5CTk8o_5govee6configNtB5_6Config7aliases
FNDA:0,_RNvMs0_NtCsf2i7I5CTk8o_5govee6configNtB5_6Config7api_key
FNDA:0,_RNvMs0_NtCsf2i7I5CTk8o_5govee6configNtB5_6Config7backend
FNDA:0,_RNvMs0_NtCsf2i7I5CTk8o_5govee6configNtB5_6Config8validate
FNDA:0,_RNvNtCsf2i7I5CTk8o_5govee6config26default_discovery_interval
FNDA:0,_RNvXs2_NtCsf2i7I5CTk8o_5govee6configNtB5_6ConfigNtNtCs85QQFkKrybG_4core3fmt5Debug3fmt
FNDA:0,_RNvXs_NtCsf2i7I5CTk8o_5govee6configNtB4_6ConfigNtNtCs85QQFkKrybG_4core7default7Default7default
FNDA:0,_RINvXs1_NtCsf2i7I5CTk8o_5govee6configNtB6_6ConfigNtNtCskhgUCy5GPyx_10serde_core2de11Deserialize11deserializeNtNtNtCseKvf8XA4Zj4_4toml2de12deserializer12DeserializerEB8_
FNDA:0,_RNCNvMs0_NtCsf2i7I5CTk8o_5govee6configNtB7_6Config8validate0B9_
FNDA:0,_RNCNvMs0_NtCsf2i7I5CTk8o_5govee6configNtB7_6Config8validates_0B9_
FNDA:1,_RNvNtNtCseqgZqxOBWDO_5govee6config5testss_14config_default
FNDA:1,_RNvNtNtCseqgZqxOBWDO_5govee6config5testss_16config_new_valid
FNDA:1,_RNvNtNtCseqgZqxOBWDO_5govee6config5testss_17config_parse_full
FNDA:1,_RNvNtNtCseqgZqxOBWDO_5govee6config5testss_20config_parse_minimal
FNDA:1,_RNvNtNtCseqgZqxOBWDO_5govee6config5testss_22config_new_with_scenes
FNDA:1,_RNvNtNtCseqgZqxOBWDO_5govee6config5testss_23config_parse_local_only
FNDA:1,_RNvNtNtCseqgZqxOBWDO_5govee6config5testss_24config_load_missing_file
FNDA:1,_RNvNtNtCseqgZqxOBWDO_5govee6config5testss_25config_parse_invalid_toml
FNDA:1,_RNvNtNtCseqgZqxOBWDO_5govee6config5testss_25config_with_scenes_parses
FNDA:1,_RNvNtNtCseqgZqxOBWDO_5govee6config5testss_27config_new_invalid_interval
FNDA:1,_RNvNtNtCseqgZqxOBWDO_5govee6config5testss_28config_debug_redacts_api_key
FNDA:1,_RNvNtNtCseqgZqxOBWDO_5govee6config5testss_30config_discovery_interval_zero
FNDA:1,_RNvNtNtCseqgZqxOBWDO_5govee6config5testss_32config_serialize_redacts_api_key
FNDA:1,_RNvNtNtCseqgZqxOBWDO_5govee6config5testss_34config_group_name_invalid_rejected
FNDA:1,_RNvNtNtCseqgZqxOBWDO_5govee6config5testss_34config_scene_invalid_name_rejected
FNDA:1,_RNvNtNtCseqgZqxOBWDO_5govee6config5testss_35config_debug_shows_none_when_no_key
FNDA:1,_RNvNtNtCseqgZqxOBWDO_5govee6config5testss_36config_discovery_interval_at_minimum
FNDA:1,_RNvNtNtCseqgZqxOBWDO_5govee6config5testss_39config_discovery_interval_below_minimum
FNDA:1,_RNvNtNtCseqgZqxOBWDO_5govee6config5testss_41config_scene_both_color_and_temp_rejected
FNDA:1,_RNvNtNtCseqgZqxOBWDO_5govee6config5testss_41config_scene_brightness_over_100_rejected
FNDA:1,_RNvNtNtCseqgZqxOBWDO_5govee6config5testss_44config_scene_neither_color_nor_temp_rejected
FNDA:1,_RNvNtNtCseqgZqxOBWDO_5govee6config5testss_45config_scene_color_temp_out_of_range_rejected
FNDA:81,_RNvMs0_NtCseqgZqxOBWDO_5govee6configNtB5_6Config23discovery_interval_secs
FNDA:37,_RNvMs0_NtCseqgZqxOBWDO_5govee6configNtB5_6Config3new
FNDA:1,_RNvMs0_NtCseqgZqxOBWDO_5govee6configNtB5_6Config4load
FNDA:78,_RNvMs0_NtCseqgZqxOBWDO_5govee6configNtB5_6Config6groups
FNDA:81,_RNvMs0_NtCseqgZqxOBWDO_5govee6configNtB5_6Config6scenes
FNDA:79,_RNvMs0_NtCseqgZqxOBWDO_5govee6configNtB5_6Config7aliases
FNDA:5,_RNvMs0_NtCseqgZqxOBWDO_5govee6configNtB5_6Config7api_key
FNDA:92,_RNvMs0_NtCseqgZqxOBWDO_5govee6configNtB5_6Config7backend
FNDA:51,_RNvMs0_NtCseqgZqxOBWDO_5govee6configNtB5_6Config8validate
FNDA:57,_RNvNtCseqgZqxOBWDO_5govee6config26default_discovery_interval
FNDA:2,_RNvXs2_NtCseqgZqxOBWDO_5govee6configNtB5_6ConfigNtNtCs85QQFkKrybG_4core3fmt5Debug3fmt
FNDA:47,_RNvXs_NtCseqgZqxOBWDO_5govee6configNtB4_6ConfigNtNtCs85QQFkKrybG_4core7default7Default7default
FNDA:1,_RINvXNtCseqgZqxOBWDO_5govee6configNtB3_6ConfigNtNtCskhgUCy5GPyx_10serde_core3ser9Serialize9serializeQINtNtCs2gIcK9cuZ92_10serde_json3ser10SerializerQINtNtCsdFlNUEO95cG_5alloc3vec3VechEEEB5_
FNDA:14,_RINvXs1_NtCseqgZqxOBWDO_5govee6configNtB6_6ConfigNtNtCskhgUCy5GPyx_10serde_core2de11Deserialize11deserializeNtNtNtCseKvf8XA4Zj4_4toml2de12deserializer12DeserializerEB8_
FNDA:97,_RNCNvMs0_NtCseqgZqxOBWDO_5govee6configNtB7_6Config8validate0B9_
FNDA:49,_RNCNvMs0_NtCseqgZqxOBWDO_5govee6configNtB7_6Config8validates_0B9_
FNF:38
FNH:38
DA:54,1
DA:55,1
DA:56,1
DA:59,1
DA:61,1
DA:62,1
DA:63,1
DA:64,1
DA:65,1
DA:66,1
DA:67,1
DA:68,1
DA:71,57
DA:72,57
DA:73,57
DA:76,47
DA:77,47
DA:78,47
DA:79,47
DA:80,47
DA:81,47
DA:82,47
DA:83,47
DA:84,47
DA:85,47
DA:90,37
DA:91,37
DA:92,37
DA:93,37
DA:94,37
DA:95,37
DA:96,37
DA:97,37
DA:98,37
DA:99,37
DA:100,37
DA:101,37
DA:102,37
DA:103,37
DA:104,37
DA:105,37
DA:106,37
DA:107,36
DA:108,37
DA:111,51
DA:112,51
DA:113,3
DA:114,3
DA:115,3
DA:116,3
DA:117,48
DA:120,48
DA:121,18
DA:122,18
DA:123,18
DA:124,97
DA:126,1
DA:127,1
DA:128,1
DA:129,17
DA:132,47
DA:133,47
DA:134,52
DA:135,11
DA:136,11
DA:137,11
DA:138,11
DA:139,49
DA:141,1
DA:142,1
DA:143,1
DA:144,10
DA:146,10
DA:147,1
DA:148,1
DA:149,1
DA:150,1
DA:151,9
DA:153,9
DA:155,1
DA:156,1
DA:157,1
DA:160,1
DA:161,1
DA:162,1
DA:164,5
DA:165,2
DA:166,2
DA:167,2
DA:169,5
DA:173,41
DA:174,51
DA:185,1
DA:190,1
DA:191,0
DA:192,0
DA:193,0
DA:194,0
DA:195,0
DA:196,0
DA:198,0
DA:199,1
DA:202,1
DA:204,0
DA:206,0
DA:207,0
DA:208,1
DA:210,5
DA:211,5
DA:212,5
DA:214,92
DA:215,92
DA:216,92
DA:218,81
DA:219,81
DA:220,81
DA:222,79
DA:223,79
DA:224,79
DA:226,78
DA:227,78
DA:228,78
DA:230,81
DA:231,81
DA:232,81
DA:236,14
DA:237,14
DA:238,14
DA:256,14
DA:257,14
DA:258,14
DA:259,14
DA:260,14
DA:261,14
DA:262,14
DA:263,14
DA:264,14
DA:265,14
DA:266,5
DA:267,14
DA:271,2
DA:272,2
DA:273,2
DA:274,2
DA:275,2
DA:276,2
DA:277,2
DA:278,2
DA:279,2
DA:280,2
DA:288,1
DA:289,1
DA:290,1
DA:291,1
DA:292,1
DA:293,1
DA:294,1
DA:295,1
DA:298,1
DA:299,1
DA:300,1
DA:301,1
DA:303,1
DA:304,1
DA:305,1
DA:307,1
DA:308,1
DA:309,1
DA:310,1
DA:313,1
DA:314,1
DA:315,1
DA:316,1
DA:318,1
DA:319,1
DA:320,1
DA:322,1
DA:323,1
DA:324,1
DA:325,1
DA:326,1
DA:329,1
DA:330,1
DA:331,1
DA:332,1
DA:333,1
DA:334,1
DA:335,1
DA:336,1
DA:337,1
DA:338,1
DA:339,1
DA:340,1
DA:341,1
DA:342,1
DA:344,1
DA:345,1
DA:346,1
DA:347,1
DA:348,1
DA:349,1
DA:350,1
DA:351,1
DA:354,1
DA:355,1
DA:356,1
DA:357,1
DA:358,1
DA:359,1
DA:360,1
DA:363,1
DA:364,1
DA:365,1
DA:366,1
DA:367,1
DA:370,1
DA:371,1
DA:372,1
DA:373,1
DA:376,1
DA:377,1
DA:378,1
DA:379,1
DA:381,1
DA:382,1
DA:383,1
DA:385,1
DA:386,1
DA:387,1
DA:388,1
DA:389,1
DA:392,1
DA:393,1
DA:394,1
DA:395,1
DA:397,1
DA:398,1
DA:399,1
DA:401,1
DA:402,1
DA:403,1
DA:404,1
DA:405,1
DA:408,1
DA:409,1
DA:410,1
DA:411,1
DA:412,1
DA:415,1
DA:416,1
DA:417,1
DA:418,1
DA:419,1
DA:420,1
DA:425,1
DA:426,1
DA:427,1
DA:428,1
DA:429,1
DA:432,1
DA:433,1
DA:434,1
DA:435,1
DA:436,1
DA:439,1
DA:440,1
DA:441,1
DA:442,1
DA:443,1
DA:448,1
DA:449,1
DA:450,1
DA:451,1
DA:452,1
DA:453,1
DA:454,1
DA:455,1
DA:456,1
DA:457,1
DA:459,1
DA:460,1
DA:461,1
DA:462,1
DA:463,1
DA:464,1
DA:466,1
DA:467,1
DA:468,1
DA:469,1
DA:470,1
DA:473,1
DA:474,1
DA:475,1
DA:476,1
DA:477,1
DA:478,1
DA:479,1
DA:480,1
DA:481,1
DA:482,1
DA:485,1
DA:486,1
DA:487,1
DA:488,1
DA:489,1
DA:490,1
DA:491,1
DA:492,1
DA:495,1
DA:496,1
DA:497,1
DA:498,1
DA:499,1
DA:500,1
DA:501,1
DA:502,1
DA:505,1
DA:506,1
DA:507,1
DA:508,1
DA:509,1
DA:510,1
DA:511,1
DA:512,1
DA:513,1
DA:516,1
DA:517,1
DA:518,1
DA:519,1
DA:520,1
DA:521,1
DA:522,1
DA:523,1
DA:524,1
DA:527,1
DA:528,1
DA:529,1
DA:530,1
DA:531,1
DA:532,1
DA:533,1
DA:534,1
DA:536,1
DA:537,1
DA:538,1
DA:539,1
DA:540,1
DA:541,1
DA:542,1
DA:543,1
DA:546,1
DA:547,1
DA:548,1
DA:549,1
DA:550,1
DA:551,1
DA:552,1
DA:553,1
DA:554,1
DA:556,1
DA:557,1
DA:558,1
DA:560,1
DA:561,1
DA:562,1
DA:564,1
DA:565,1
DA:566,1
DA:567,1
BRF:0
BRH:0
LF:371
LH:361
end_of_record
SF:/Users/waku/dev/govee/src/error.rs
FN:101,_RNvNtNtCseqgZqxOBWDO_5govee5error5testss_13error_from_io
FN:64,_RNvNtNtCseqgZqxOBWDO_5govee5error5testss_17error_display_api
FN:109,_RNvNtNtCseqgZqxOBWDO_5govee5error5testss_21error_from_serde_json
FN:73,_RNvNtNtCseqgZqxOBWDO_5govee5error5testss_26error_display_rate_limited
FN:95,_RNvNtNtCseqgZqxOBWDO_5govee5error5testss_29error_display_not_implemented
FN:81,_RNvNtNtCseqgZqxOBWDO_5govee5error5testss_30error_display_device_not_found
FN:87,_RNvNtNtCseqgZqxOBWDO_5govee5error5testss_31error_display_discovery_timeout
FNDA:1,_RNvNtNtCseqgZqxOBWDO_5govee5error5testss_13error_from_io
FNDA:1,_RNvNtNtCseqgZqxOBWDO_5govee5error5testss_17error_display_api
FNDA:1,_RNvNtNtCseqgZqxOBWDO_5govee5error5testss_21error_from_serde_json
FNDA:1,_RNvNtNtCseqgZqxOBWDO_5govee5error5testss_26error_display_rate_limited
FNDA:1,_RNvNtNtCseqgZqxOBWDO_5govee5error5testss_29error_display_not_implemented
FNDA:1,_RNvNtNtCseqgZqxOBWDO_5govee5error5testss_30error_display_device_not_found
FNDA:1,_RNvNtNtCseqgZqxOBWDO_5govee5error5testss_31error_display_discovery_timeout
FNF:7
FNH:7
DA:64,1
DA:65,1
DA:66,1
DA:67,1
DA:68,1
DA:69,1
DA:70,1
DA:73,1
DA:74,1
DA:75,1
DA:76,1
DA:77,1
DA:78,1
DA:81,1
DA:82,1
DA:83,1
DA:84,1
DA:87,1
DA:88,1
DA:89,1
DA:92,1
DA:95,1
DA:96,1
DA:97,1
DA:98,1
DA:101,1
DA:102,1
DA:103,1
DA:104,1
DA:105,1
DA:106,1
DA:109,1
DA:110,1
DA:111,1
DA:112,1
DA:113,1
BRF:0
BRH:0
LF:36
LH:36
end_of_record
SF:/Users/waku/dev/govee/src/registry.rs
FN:370,_RNCNvMNtCsf2i7I5CTk8o_5govee8registryNtB4_14DeviceRegistry10get_devices_0B6_
FN:394,_RNCNvMNtCsf2i7I5CTk8o_5govee8registryNtB4_14DeviceRegistry11backend_for0B6_
FN:404,_RNCNvMNtCsf2i7I5CTk8o_5govee8registryNtB4_14DeviceRegistry11backend_fors0_0B6_
FN:400,_RNCNvMNtCsf2i7I5CTk8o_5govee8registryNtB4_14DeviceRegistry11backend_fors_0B6_
FN:742,_RNCNvMNtCsf2i7I5CTk8o_5govee8registryNtB4_14DeviceRegistry13resolve_group0B6_
FN:457,_RNCNvMNtCsf2i7I5CTk8o_5govee8registryNtB4_14DeviceRegistry14backend_status0B6_
FN:362,_RNCNvMNtCsf2i7I5CTk8o_5govee8registryNtB4_14DeviceRegistry7devices0B6_
FN:956,_RNvXs0_NtCsf2i7I5CTk8o_5govee8registryNtB5_14DeviceRegistryNtNtNtCs85QQFkKrybG_4core3ops4drop4Drop4drop
FN:963,_RINvNvNtCseqgZqxOBWDO_5govee8registry1__17__assert_send_syncpEB6_
FN:964,_RNvNvNtCseqgZqxOBWDO_5govee8registry1__7__assert
FN:366,_RNvMNtCseqgZqxOBWDO_5govee8registryNtB2_14DeviceRegistry10get_device
FN:697,_RNvMNtCseqgZqxOBWDO_5govee8registryNtB2_14DeviceRegistry11apply_scene
FN:390,_RNvMNtCseqgZqxOBWDO_5govee8registryNtB2_14DeviceRegistry11backend_for
FN:520,_RNvMNtCseqgZqxOBWDO_5govee8registryNtB2_14DeviceRegistry12update_cache
FN:738,_RNvMNtCseqgZqxOBWDO_5govee8registryNtB2_14DeviceRegistry13resolve_group
FN:454,_RNvMNtCseqgZqxOBWDO_5govee8registryNtB2_14DeviceRegistry14backend_status
FN:577,_RNvMNtCseqgZqxOBWDO_5govee8registryNtB2_14DeviceRegistry14set_brightness
FN:646,_RNvMNtCseqgZqxOBWDO_5govee8registryNtB2_14DeviceRegistry14set_color_temp
FN:782,_RNvMNtCseqgZqxOBWDO_5govee8registryNtB2_14DeviceRegistry15group_set_color
FN:752,_RNvMNtCseqgZqxOBWDO_5govee8registryNtB2_14DeviceRegistry15group_set_power
FN:423,_RNvMNtCseqgZqxOBWDO_5govee8registryNtB2_14DeviceRegistry16fallback_backend
FN:440,_RNvMNtCseqgZqxOBWDO_5govee8registryNtB2_14DeviceRegistry18is_transport_error
FN:809,_RNvMNtCseqgZqxOBWDO_5govee8registryNtB2_14DeviceRegistry19start_with_backends
FN:767,_RNvMNtCseqgZqxOBWDO_5govee8registryNtB2_14DeviceRegistry20group_set_brightness
FN:797,_RNvMNtCseqgZqxOBWDO_5govee8registryNtB2_14DeviceRegistry20group_set_color_temp
FN:127,_RNvMNtCseqgZqxOBWDO_5govee8registryNtB2_14DeviceRegistry5build
FN:87,_RNvMNtCseqgZqxOBWDO_5govee8registryNtB2_14DeviceRegistry5start
FN:675,_RNvMNtCseqgZqxOBWDO_5govee8registryNtB2_14DeviceRegistry6scenes
FN:361,_RNvMNtCseqgZqxOBWDO_5govee8registryNtB2_14DeviceRegistry7devices
FN:377,_RNvMNtCseqgZqxOBWDO_5govee8registryNtB2_14DeviceRegistry7resolve
FN:466,_RNvMNtCseqgZqxOBWDO_5govee8registryNtB2_14DeviceRegistry9get_state
FN:611,_RNvMNtCseqgZqxOBWDO_5govee8registryNtB2_14DeviceRegistry9set_color
FN:545,_RNvMNtCseqgZqxOBWDO_5govee8registryNtB2_14DeviceRegistry9set_power
FN:851,_RNvNtCseqgZqxOBWDO_5govee8registry19reconciliation_loop
FN:822,_RNvNtCseqgZqxOBWDO_5govee8registry21collect_group_results
FN:946,_RNvXs_NtCseqgZqxOBWDO_5govee8registryNtB4_14DeviceRegistryNtNtCs85QQFkKrybG_4core3fmt5Debug3fmt
FN:1784,_RNvNtNtCseqgZqxOBWDO_5govee8registry5tests10make_state
FN:978,_RNvNtNtCseqgZqxOBWDO_5govee8registry5tests11make_device
FN:988,_RNvNtNtCseqgZqxOBWDO_5govee8registry5tests14default_config
FN:2262,_RNvNtNtCseqgZqxOBWDO_5govee8registry5tests18config_with_groups
FN:1797,_RNvNtNtCseqgZqxOBWDO_5govee8registry5tests26mock_with_device_and_state
FN:2788,_RNvNtNtCseqgZqxOBWDO_5govee8registry5tests31mock_with_two_devices_and_state
FN:1278,_RNvNtNtCseqgZqxOBWDO_5govee8registry5testss_12debug_format
FN:993,_RNvNtNtCseqgZqxOBWDO_5govee8registry5testss_16cloud_only_merge
FN:1023,_RNvNtNtCseqgZqxOBWDO_5govee8registry5testss_16local_only_merge
FN:1624,_RNvNtNtCseqgZqxOBWDO_5govee8registry5testss_16resolve_by_alias
FN:1139,_RNvNtNtCseqgZqxOBWDO_5govee8registry5testss_19get_device_existing
FN:2852,_RNvNtNtCseqgZqxOBWDO_5govee8registry5testss_20apply_scene_to_group
FN:1157,_RNvNtNtCseqgZqxOBWDO_5govee8registry5testss_20get_device_not_found
FN:2612,_RNvNtNtCseqgZqxOBWDO_5govee8registry5testss_21group_partial_failure
FN:1830,_RNvNtNtCseqgZqxOBWDO_5govee8registry5testss_24cache_hit_returns_cached
FN:1556,_RNvNtNtCseqgZqxOBWDO_5govee8registry5testss_25arc_clone_shares_registry
FN:1394,_RNvNtNtCseqgZqxOBWDO_5govee8registry5testss_25cloud_only_mode_all_cloud
FN:3414,_RNvNtNtCseqgZqxOBWDO_5govee8registry5testss_25integration_backend_modes
FN:2275,_RNvNtNtCseqgZqxOBWDO_5govee8registry5testss_25resolve_group_known_group
FN:2885,_RNvNtNtCseqgZqxOBWDO_5govee8registry5testss_26apply_scene_to_all_devices
FN:1490,_RNvNtNtCseqgZqxOBWDO_5govee8registry5testss_26auto_no_api_key_local_only
FN:1167,_RNvNtNtCseqgZqxOBWDO_5govee8registry5testss_26backend_for_unknown_device
FN:1813,_RNvNtNtCseqgZqxOBWDO_5govee8registry5testss_26cache_miss_queries_backend
FN:2570,_RNvNtNtCseqgZqxOBWDO_5govee8registry5testss_26group_deduplicates_members
FN:1130,_RNvNtNtCseqgZqxOBWDO_5govee8registry5testss_26no_backends_empty_registry
FN:3023,_RNvNtNtCseqgZqxOBWDO_5govee8registry5testss_27apply_scene_partial_failure
FN:1178,_RNvNtNtCseqgZqxOBWDO_5govee8registry5testss_27backend_for_routes_to_cloud
FN:1203,_RNvNtNtCseqgZqxOBWDO_5govee8registry5testss_27backend_for_routes_to_local
FN:2460,_RNvNtNtCseqgZqxOBWDO_5govee8registry5testss_27group_set_color_all_succeed
FN:2395,_RNvNtNtCseqgZqxOBWDO_5govee8registry5testss_27group_set_power_all_succeed
FN:2947,_RNvNtNtCseqgZqxOBWDO_5govee8registry5testss_28apply_scene_user_defined_rgb
FN:2911,_RNvNtNtCseqgZqxOBWDO_5govee8registry5testss_28apply_scene_with_device_name
FN:2532,_RNvNtNtCseqgZqxOBWDO_5govee8registry5testss_28group_resolves_alias_members
FN:3353,_RNvNtNtCseqgZqxOBWDO_5govee8registry5testss_28integration_alias_resolution
FN:2811,_RNvNtNtCseqgZqxOBWDO_5govee8registry5testss_29apply_scene_single_device_rgb
FN:1084,_RNvNtNtCseqgZqxOBWDO_5govee8registry5testss_29disjoint_devices_all_included
FN:3198,_RNvNtNtCseqgZqxOBWDO_5govee8registry5testss_29integration_merge_and_resolve
FN:1871,_RNvNtNtCseqgZqxOBWDO_5govee8registry5testss_29stale_cache_requeries_backend
FN:2381,_RNvNtNtCseqgZqxOBWDO_5govee8registry5testss_30group_set_power_empty_group_ok
FN:2086,_RNvNtNtCseqgZqxOBWDO_5govee8registry5testss_30resolve_alias_case_insensitive
FN:2312,_RNvNtNtCseqgZqxOBWDO_5govee8registry5testss_30resolve_group_case_insensitive
FN:2433,_RNvNtNtCseqgZqxOBWDO_5govee8registry5testss_32group_set_brightness_all_succeed
FN:2492,_RNvNtNtCseqgZqxOBWDO_5govee8registry5testss_32group_set_color_temp_all_succeed
FN:3274,_RNvNtNtCseqgZqxOBWDO_5govee8registry5testss_32integration_scene_apply_to_group
FN:3578,_RNvNtNtCseqgZqxOBWDO_5govee8registry5testss_33cloud_only_no_fallback_on_failure
FN:1989,_RNvNtNtCseqgZqxOBWDO_5govee8registry5testss_33reconciliation_detects_divergence
FN:2348,_RNvNtNtCseqgZqxOBWDO_5govee8registry5testss_34group_unresolvable_member_excluded
FN:1658,_RNvNtNtCseqgZqxOBWDO_5govee8registry5testss_34resolve_unknown_name_returns_error
FN:2985,_RNvNtNtCseqgZqxOBWDO_5govee8registry5testss_35apply_scene_user_defined_color_temp
FN:1516,_RNvNtNtCseqgZqxOBWDO_5govee8registry5testss_35backend_status_reflects_assignments
FN:1328,_RNvNtNtCseqgZqxOBWDO_5govee8registry5testss_35cloud_only_without_api_key_is_error
FN:2338,_RNvNtNtCseqgZqxOBWDO_5govee8registry5testss_35resolve_group_unknown_returns_error
FN:2069,_RNvNtNtCseqgZqxOBWDO_5govee8registry5testss_35update_cache_ignores_unknown_device
FN:2832,_RNvNtNtCseqgZqxOBWDO_5govee8registry5testss_36apply_scene_single_device_color_temp
FN:3723,_RNvNtNtCseqgZqxOBWDO_5govee8registry5testss_36auto_mode_cloud_device_is_resolvable
FN:1579,_RNvNtNtCseqgZqxOBWDO_5govee8registry5testss_36resolve_by_canonical_name_exact_case
FN:1679,_RNvNtNtCseqgZqxOBWDO_5govee8registry5testss_36resolve_multiple_aliases_same_device
FN:3535,_RNvNtNtCseqgZqxOBWDO_5govee8registry5testss_37auto_mode_fallback_on_primary_failure
FN:1228,_RNvNtNtCseqgZqxOBWDO_5govee8registry5testss_37backend_for_unavailable_returns_error
FN:1934,_RNvNtNtCseqgZqxOBWDO_5govee8registry5testss_38reconciliation_confirms_matching_state
FN:1893,_RNvNtNtCseqgZqxOBWDO_5govee8registry5testss_38reconciliation_exits_when_weak_is_dead
FN:1750,_RNvNtNtCseqgZqxOBWDO_5govee8registry5testss_38resolve_name_collision_last_by_id_wins
FN:2234,_RNvNtNtCseqgZqxOBWDO_5govee8registry5testss_38set_color_unknown_device_returns_error
FN:2212,_RNvNtNtCseqgZqxOBWDO_5govee8registry5testss_38set_power_unknown_device_returns_error
FN:2123,_RNvNtNtCseqgZqxOBWDO_5govee8registry5testss_38set_power_updates_cache_optimistically
FN:2934,_RNvNtNtCseqgZqxOBWDO_5govee8registry5testss_39apply_scene_unknown_scene_returns_error
FN:2159,_RNvNtNtCseqgZqxOBWDO_5govee8registry5testss_39set_color_updates_color_and_clears_temp
FN:1299,_RNvNtNtCseqgZqxOBWDO_5govee8registry5testss_40overlapping_device_backend_field_updated
FN:1600,_RNvNtNtCseqgZqxOBWDO_5govee8registry5testss_40resolve_by_canonical_name_different_case
FN:2519,_RNvNtNtCseqgZqxOBWDO_5govee8registry5testss_41group_command_unknown_group_returns_error
FN:1441,_RNvNtNtCseqgZqxOBWDO_5govee8registry5testss_43local_only_mode_excludes_cloud_only_devices
FN:2223,_RNvNtNtCseqgZqxOBWDO_5govee8registry5testss_43set_brightness_unknown_device_returns_error
FN:2141,_RNvNtNtCseqgZqxOBWDO_5govee8registry5testss_43set_brightness_updates_cache_optimistically
FN:2250,_RNvNtNtCseqgZqxOBWDO_5govee8registry5testss_43set_color_temp_unknown_device_returns_error
FN:2191,_RNvNtNtCseqgZqxOBWDO_5govee8registry5testss_44set_color_temp_updates_temp_and_resets_color
FN:1349,_RNvNtNtCseqgZqxOBWDO_5govee8registry5testss_45auto_mode_local_for_discovered_cloud_for_rest
FN:3669,_RNvNtNtCseqgZqxOBWDO_5govee8registry5testss_45local_only_group_excludes_pruned_cloud_device
FN:1715,_RNvNtNtCseqgZqxOBWDO_5govee8registry5testss_45resolve_alias_target_not_found_not_registered
FN:1849,_RNvNtNtCseqgZqxOBWDO_5govee8registry5testss_46update_cache_optimistic_reflected_in_get_state
FN:3618,_RNvNtNtCseqgZqxOBWDO_5govee8registry5testss_49local_only_resolve_cloud_device_returns_not_found
FN:1046,_RNvNtNtCseqgZqxOBWDO_5govee8registry5testss_50overlapping_macs_uses_cloud_name_and_local_backend
FN:2685,_RNvXNCNvNtNtCseqgZqxOBWDO_5govee8registry5testss_21group_partial_failure0NtB2_16SelectiveBackendNtNtBa_7backend12GoveeBackend11list_scenes
FN:2735,_RNvXNCNvNtNtCseqgZqxOBWDO_5govee8registry5testss_21group_partial_failure0NtB2_16SelectiveBackendNtNtBa_7backend12GoveeBackend12backend_type
FN:2625,_RNvXNCNvNtNtCseqgZqxOBWDO_5govee8registry5testss_21group_partial_failure0NtB2_16SelectiveBackendNtNtBa_7backend12GoveeBackend12list_devices
FN:2705,_RNvXNCNvNtNtCseqgZqxOBWDO_5govee8registry5testss_21group_partial_failure0NtB2_16SelectiveBackendNtNtBa_7backend12GoveeBackend13set_diy_scene
FN:2732,_RNvXNCNvNtNtCseqgZqxOBWDO_5govee8registry5testss_21group_partial_failure0NtB2_16SelectiveBackendNtNtBa_7backend12GoveeBackend13set_work_mode
FN:2657,_RNvXNCNvNtNtCseqgZqxOBWDO_5govee8registry5testss_21group_partial_failure0NtB2_16SelectiveBackendNtNtBa_7backend12GoveeBackend14set_brightness
FN:2675,_RNvXNCNvNtNtCseqgZqxOBWDO_5govee8registry5testss_21group_partial_failure0NtB2_16SelectiveBackendNtNtBa_7backend12GoveeBackend14set_color_temp
FN:2698,_RNvXNCNvNtNtCseqgZqxOBWDO_5govee8registry5testss_21group_partial_failure0NtB2_16SelectiveBackendNtNtBa_7backend12GoveeBackend15list_diy_scenes
FN:2724,_RNvXNCNvNtNtCseqgZqxOBWDO_5govee8registry5testss_21group_partial_failure0NtB2_16SelectiveBackendNtNtBa_7backend12GoveeBackend15list_work_modes
FN:2713,_RNvXNCNvNtNtCseqgZqxOBWDO_5govee8registry5testss_21group_partial_failure0NtB2_16SelectiveBackendNtNtBa_7backend12GoveeBackend17set_segment_color
FN:2721,_RNvXNCNvNtNtCseqgZqxOBWDO_5govee8registry5testss_21group_partial_failure0NtB2_16SelectiveBackendNtNtBa_7backend12GoveeBackend22set_segment_brightness
FN:2643,_RNvXNCNvNtNtCseqgZqxOBWDO_5govee8registry5testss_21group_partial_failure0NtB2_16SelectiveBackendNtNtBa_7backend12GoveeBackend9get_state
FN:2664,_RNvXNCNvNtNtCseqgZqxOBWDO_5govee8registry5testss_21group_partial_failure0NtB2_16SelectiveBackendNtNtBa_7backend12GoveeBackend9set_color
FN:2650,_RNvXNCNvNtNtCseqgZqxOBWDO_5govee8registry5testss_21group_partial_failure0NtB2_16SelectiveBackendNtNtBa_7backend12GoveeBackend9set_power
FN:2692,_RNvXNCNvNtNtCseqgZqxOBWDO_5govee8registry5testss_21group_partial_failure0NtB2_16SelectiveBackendNtNtBa_7backend12GoveeBackend9set_scene
FN:3096,_RNvXNCNvNtNtCseqgZqxOBWDO_5govee8registry5testss_27apply_scene_partial_failure0NtB2_16SelectiveBackendNtNtBa_7backend12GoveeBackend11list_scenes
FN:3146,_RNvXNCNvNtNtCseqgZqxOBWDO_5govee8registry5testss_27apply_scene_partial_failure0NtB2_16SelectiveBackendNtNtBa_7backend12GoveeBackend12backend_type
FN:3036,_RNvXNCNvNtNtCseqgZqxOBWDO_5govee8registry5testss_27apply_scene_partial_failure0NtB2_16SelectiveBackendNtNtBa_7backend12GoveeBackend12list_devices
FN:3116,_RNvXNCNvNtNtCseqgZqxOBWDO_5govee8registry5testss_27apply_scene_partial_failure0NtB2_16SelectiveBackendNtNtBa_7backend12GoveeBackend13set_diy_scene
FN:3143,_RNvXNCNvNtNtCseqgZqxOBWDO_5govee8registry5testss_27apply_scene_partial_failure0NtB2_16SelectiveBackendNtNtBa_7backend12GoveeBackend13set_work_mode
FN:3068,_RNvXNCNvNtNtCseqgZqxOBWDO_5govee8registry5testss_27apply_scene_partial_failure0NtB2_16SelectiveBackendNtNtBa_7backend12GoveeBackend14set_brightness
FN:3086,_RNvXNCNvNtNtCseqgZqxOBWDO_5govee8registry5testss_27apply_scene_partial_failure0NtB2_16SelectiveBackendNtNtBa_7backend12GoveeBackend14set_color_temp
FN:3109,_RNvXNCNvNtNtCseqgZqxOBWDO_5govee8registry5testss_27apply_scene_partial_failure0NtB2_16SelectiveBackendNtNtBa_7backend12GoveeBackend15list_diy_scenes
FN:3135,_RNvXNCNvNtNtCseqgZqxOBWDO_5govee8registry5testss_27apply_scene_partial_failure0NtB2_16SelectiveBackendNtNtBa_7backend12GoveeBackend15list_work_modes
FN:3124,_RNvXNCNvNtNtCseqgZqxOBWDO_5govee8registry5testss_27apply_scene_partial_failure0NtB2_16SelectiveBackendNtNtBa_7backend12GoveeBackend17set_segment_color
FN:3132,_RNvXNCNvNtNtCseqgZqxOBWDO_5govee8registry5testss_27apply_scene_partial_failure0NtB2_16SelectiveBackendNtNtBa_7backend12GoveeBackend22set_segment_brightness
FN:3054,_RNvXNCNvNtNtCseqgZqxOBWDO_5govee8registry5testss_27apply_scene_partial_failure0NtB2_16SelectiveBackendNtNtBa_7backend12GoveeBackend9get_state
FN:3075,_RNvXNCNvNtNtCseqgZqxOBWDO_5govee8registry5testss_27apply_scene_partial_failure0NtB2_16SelectiveBackendNtNtBa_7backend12GoveeBackend9set_color
FN:3061,_RNvXNCNvNtNtCseqgZqxOBWDO_5govee8registry5testss_27apply_scene_partial_failure0NtB2_16SelectiveBackendNtNtBa_7backend12GoveeBackend9set_power
FN:3103,_RNvXNCNvNtNtCseqgZqxOBWDO_5govee8registry5testss_27apply_scene_partial_failure0NtB2_16SelectiveBackendNtNtBa_7backend12GoveeBackend9set_scene
FN:3587,_RNCNCNvNtNtCseqgZqxOBWDO_5govee8registry5testss_33cloud_only_no_fallback_on_failure00B9_
FN:2037,_RNCNCNvNtNtCseqgZqxOBWDO_5govee8registry5testss_33reconciliation_detects_divergence00B9_
FN:3553,_RNCNCNvNtNtCseqgZqxOBWDO_5govee8registry5testss_37auto_mode_fallback_on_primary_failure00B9_
FN:1972,_RNCNCNvNtNtCseqgZqxOBWDO_5govee8registry5testss_38reconciliation_confirms_matching_state00B9_
FN:1278,_RNCNvNtNtCseqgZqxOBWDO_5govee8registry5testss_12debug_format0B7_
FN:993,_RNCNvNtNtCseqgZqxOBWDO_5govee8registry5testss_16cloud_only_merge0B7_
FN:1023,_RNCNvNtNtCseqgZqxOBWDO_5govee8registry5testss_16local_only_merge0B7_
FN:1624,_RNCNvNtNtCseqgZqxOBWDO_5govee8registry5testss_16resolve_by_alias0B7_
FN:1139,_RNCNvNtNtCseqgZqxOBWDO_5govee8registry5testss_19get_device_existing0B7_
FN:2852,_RNCNvNtNtCseqgZqxOBWDO_5govee8registry5testss_20apply_scene_to_group0B7_
FN:1157,_RNCNvNtNtCseqgZqxOBWDO_5govee8registry5testss_20get_device_not_found0B7_
FN:2612,_RNCNvNtNtCseqgZqxOBWDO_5govee8registry5testss_21group_partial_failure0B7_
FN:1830,_RNCNvNtNtCseqgZqxOBWDO_5govee8registry5testss_24cache_hit_returns_cached0B7_
FN:1556,_RNCNvNtNtCseqgZqxOBWDO_5govee8registry5testss_25arc_clone_shares_registry0B7_
FN:1394,_RNCNvNtNtCseqgZqxOBWDO_5govee8registry5testss_25cloud_only_mode_all_cloud0B7_
FN:3414,_RNCNvNtNtCseqgZqxOBWDO_5govee8registry5testss_25integration_backend_modes0B7_
FN:2275,_RNCNvNtNtCseqgZqxOBWDO_5govee8registry5testss_25resolve_group_known_group0B7_
FN:2885,_RNCNvNtNtCseqgZqxOBWDO_5govee8registry5testss_26apply_scene_to_all_devices0B7_
FN:1490,_RNCNvNtNtCseqgZqxOBWDO_5govee8registry5testss_26auto_no_api_key_local_only0B7_
FN:1167,_RNCNvNtNtCseqgZqxOBWDO_5govee8registry5testss_26backend_for_unknown_device0B7_
FN:1813,_RNCNvNtNtCseqgZqxOBWDO_5govee8registry5testss_26cache_miss_queries_backend0B7_
FN:2570,_RNCNvNtNtCseqgZqxOBWDO_5govee8registry5testss_26group_deduplicates_members0B7_
FN:1130,_RNCNvNtNtCseqgZqxOBWDO_5govee8registry5testss_26no_backends_empty_registry0B7_
FN:3023,_RNCNvNtNtCseqgZqxOBWDO_5govee8registry5testss_27apply_scene_partial_failure0B7_
FN:1178,_RNCNvNtNtCseqgZqxOBWDO_5govee8registry5testss_27backend_for_routes_to_cloud0B7_
FN:1203,_RNCNvNtNtCseqgZqxOBWDO_5govee8registry5testss_27backend_for_routes_to_local0B7_
FN:2460,_RNCNvNtNtCseqgZqxOBWDO_5govee8registry5testss_27group_set_color_all_succeed0B7_
FN:2395,_RNCNvNtNtCseqgZqxOBWDO_5govee8registry5testss_27group_set_power_all_succeed0B7_
FN:2947,_RNCNvNtNtCseqgZqxOBWDO_5govee8registry5testss_28apply_scene_user_defined_rgb0B7_
FN:2911,_RNCNvNtNtCseqgZqxOBWDO_5govee8registry5testss_28apply_scene_with_device_name0B7_
FN:2532,_RNCNvNtNtCseqgZqxOBWDO_5govee8registry5testss_28group_resolves_alias_members0B7_
FN:3353,_RNCNvNtNtCseqgZqxOBWDO_5govee8registry5testss_28integration_alias_resolution0B7_
FN:2811,_RNCNvNtNtCseqgZqxOBWDO_5govee8registry5testss_29apply_scene_single_device_rgb0B7_
FN:1084,_RNCNvNtNtCseqgZqxOBWDO_5govee8registry5testss_29disjoint_devices_all_included0B7_
FN:3198,_RNCNvNtNtCseqgZqxOBWDO_5govee8registry5testss_29integration_merge_and_resolve0B7_
FN:1871,_RNCNvNtNtCseqgZqxOBWDO_5govee8registry5testss_29stale_cache_requeries_backend0B7_
FN:2381,_RNCNvNtNtCseqgZqxOBWDO_5govee8registry5testss_30group_set_power_empty_group_ok0B7_
FN:2086,_RNCNvNtNtCseqgZqxOBWDO_5govee8registry5testss_30resolve_alias_case_insensitive0B7_
FN:2312,_RNCNvNtNtCseqgZqxOBWDO_5govee8registry5testss_30resolve_group_case_insensitive0B7_
FN:2433,_RNCNvNtNtCseqgZqxOBWDO_5govee8registry5testss_32group_set_brightness_all_succeed0B7_
FN:2492,_RNCNvNtNtCseqgZqxOBWDO_5govee8registry5testss_32group_set_color_temp_all_succeed0B7_
FN:3274,_RNCNvNtNtCseqgZqxOBWDO_5govee8registry5testss_32integration_scene_apply_to_group0B7_
FN:3578,_RNCNvNtNtCseqgZqxOBWDO_5govee8registry5testss_33cloud_only_no_fallback_on_failure0B7_
FN:1989,_RNCNvNtNtCseqgZqxOBWDO_5govee8registry5testss_33reconciliation_detects_divergence0B7_
FN:2348,_RNCNvNtNtCseqgZqxOBWDO_5govee8registry5testss_34group_unresolvable_member_excluded0B7_
FN:1658,_RNCNvNtNtCseqgZqxOBWDO_5govee8registry5testss_34resolve_unknown_name_returns_error0B7_
FN:2985,_RNCNvNtNtCseqgZqxOBWDO_5govee8registry5testss_35apply_scene_user_defined_color_temp0B7_
FN:1516,_RNCNvNtNtCseqgZqxOBWDO_5govee8registry5testss_35backend_status_reflects_assignments0B7_
FN:1328,_RNCNvNtNtCseqgZqxOBWDO_5govee8registry5testss_35cloud_only_without_api_key_is_error0B7_
FN:2338,_RNCNvNtNtCseqgZqxOBWDO_5govee8registry5testss_35resolve_group_unknown_returns_error0B7_
FN:2069,_RNCNvNtNtCseqgZqxOBWDO_5govee8registry5testss_35update_cache_ignores_unknown_device0B7_
FN:2832,_RNCNvNtNtCseqgZqxOBWDO_5govee8registry5testss_36apply_scene_single_device_color_temp0B7_
FN:3723,_RNCNvNtNtCseqgZqxOBWDO_5govee8registry5testss_36auto_mode_cloud_device_is_resolvable0B7_
FN:1579,_RNCNvNtNtCseqgZqxOBWDO_5govee8registry5testss_36resolve_by_canonical_name_exact_case0B7_
FN:1679,_RNCNvNtNtCseqgZqxOBWDO_5govee8registry5testss_36resolve_multiple_aliases_same_device0B7_
FN:3535,_RNCNvNtNtCseqgZqxOBWDO_5govee8registry5testss_37auto_mode_fallback_on_primary_failure0B7_
FN:1228,_RNCNvNtNtCseqgZqxOBWDO_5govee8registry5testss_37backend_for_unavailable_returns_error0B7_
FN:1934,_RNCNvNtNtCseqgZqxOBWDO_5govee8registry5testss_38reconciliation_confirms_matching_state0B7_
FN:1893,_RNCNvNtNtCseqgZqxOBWDO_5govee8registry5testss_38reconciliation_exits_when_weak_is_dead0B7_
FN:1750,_RNCNvNtNtCseqgZqxOBWDO_5govee8registry5testss_38resolve_name_collision_last_by_id_wins0B7_
FN:2234,_RNCNvNtNtCseqgZqxOBWDO_5govee8registry5testss_38set_color_unknown_device_returns_error0B7_
FN:2212,_RNCNvNtNtCseqgZqxOBWDO_5govee8registry5testss_38set_power_unknown_device_returns_error0B7_
FN:2123,_RNCNvNtNtCseqgZqxOBWDO_5govee8registry5testss_38set_power_updates_cache_optimistically0B7_
FN:2934,_RNCNvNtNtCseqgZqxOBWDO_5govee8registry5testss_39apply_scene_unknown_scene_returns_error0B7_
FN:2159,_RNCNvNtNtCseqgZqxOBWDO_5govee8registry5testss_39set_color_updates_color_and_clears_temp0B7_
FN:1299,_RNCNvNtNtCseqgZqxOBWDO_5govee8registry5testss_40overlapping_device_backend_field_updated0B7_
FN:1600,_RNCNvNtNtCseqgZqxOBWDO_5govee8registry5testss_40resolve_by_canonical_name_different_case0B7_
FN:2519,_RNCNvNtNtCseqgZqxOBWDO_5govee8registry5testss_41group_command_unknown_group_returns_error0B7_
FN:1441,_RNCNvNtNtCseqgZqxOBWDO_5govee8registry5testss_43local_only_mode_excludes_cloud_only_devices0B7_
FN:2223,_RNCNvNtNtCseqgZqxOBWDO_5govee8registry5testss_43set_brightness_unknown_device_returns_error0B7_
FN:2141,_RNCNvNtNtCseqgZqxOBWDO_5govee8registry5testss_43set_brightness_updates_cache_optimistically0B7_
FN:2250,_RNCNvNtNtCseqgZqxOBWDO_5govee8registry5testss_43set_color_temp_unknown_device_returns_error0B7_
FN:2191,_RNCNvNtNtCseqgZqxOBWDO_5govee8registry5testss_44set_color_temp_updates_temp_and_resets_color0B7_
FN:1349,_RNCNvNtNtCseqgZqxOBWDO_5govee8registry5testss_45auto_mode_local_for_discovered_cloud_for_rest0B7_
FN:3669,_RNCNvNtNtCseqgZqxOBWDO_5govee8registry5testss_45local_only_group_excludes_pruned_cloud_device0B7_
FN:1715,_RNCNvNtNtCseqgZqxOBWDO_5govee8registry5testss_45resolve_alias_target_not_found_not_registered0B7_
FN:1849,_RNCNvNtNtCseqgZqxOBWDO_5govee8registry5testss_46update_cache_optimistic_reflected_in_get_state0B7_
FN:3618,_RNCNvNtNtCseqgZqxOBWDO_5govee8registry5testss_49local_only_resolve_cloud_device_returns_not_found0B7_
FN:1046,_RNCNvNtNtCseqgZqxOBWDO_5govee8registry5testss_50overlapping_macs_uses_cloud_name_and_local_backend0B7_
FN:956,_RNvXs0_NtCseqgZqxOBWDO_5govee8registryNtB5_14DeviceRegistryNtNtNtCs85QQFkKrybG_4core3ops4drop4Drop4drop
FN:716,_RNCNCNCNvMNtCseqgZqxOBWDO_5govee8registryNtB8_14DeviceRegistry11apply_scene000Ba_
FN:713,_RNCNCNvMNtCseqgZqxOBWDO_5govee8registryNtB6_14DeviceRegistry11apply_scene00B8_
FN:788,_RNCNCNvMNtCseqgZqxOBWDO_5govee8registryNtB6_14DeviceRegistry15group_set_color00B8_
FN:758,_RNCNCNvMNtCseqgZqxOBWDO_5govee8registryNtB6_14DeviceRegistry15group_set_power00B8_
FN:773,_RNCNCNvMNtCseqgZqxOBWDO_5govee8registryNtB6_14DeviceRegistry20group_set_brightness00B8_
FN:803,_RNCNCNvMNtCseqgZqxOBWDO_5govee8registryNtB6_14DeviceRegistry20group_set_color_temp00B8_
FN:210,_RNCNCNvMNtCseqgZqxOBWDO_5govee8registryNtB6_14DeviceRegistry5build00B8_
FN:245,_RNCNCNvMNtCseqgZqxOBWDO_5govee8registryNtB6_14DeviceRegistry5build0s0_0B8_
FN:299,_RNCNCNvMNtCseqgZqxOBWDO_5govee8registryNtB6_14DeviceRegistry5build0s1_0B8_
FN:235,_RNCNCNvMNtCseqgZqxOBWDO_5govee8registryNtB6_14DeviceRegistry5build0s_0B8_
FN:912,_RNCNCNvNtCseqgZqxOBWDO_5govee8registry19reconciliation_loop00B7_
FN:370,_RNCNvMNtCseqgZqxOBWDO_5govee8registryNtB4_14DeviceRegistry10get_devices_0B6_
FN:701,_RNCNvMNtCseqgZqxOBWDO_5govee8registryNtB4_14DeviceRegistry11apply_scene0B6_
FN:394,_RNCNvMNtCseqgZqxOBWDO_5govee8registryNtB4_14DeviceRegistry11backend_for0B6_
FN:404,_RNCNvMNtCseqgZqxOBWDO_5govee8registryNtB4_14DeviceRegistry11backend_fors0_0B6_
FN:400,_RNCNvMNtCseqgZqxOBWDO_5govee8registryNtB4_14DeviceRegistry11backend_fors_0B6_
FN:525,_RNCNvMNtCseqgZqxOBWDO_5govee8registryNtB4_14DeviceRegistry12update_cache0B6_
FN:742,_RNCNvMNtCseqgZqxOBWDO_5govee8registryNtB4_14DeviceRegistry13resolve_group0B6_
FN:457,_RNCNvMNtCseqgZqxOBWDO_5govee8registryNtB4_14DeviceRegistry14backend_status0B6_
FN:577,_RNCNvMNtCseqgZqxOBWDO_5govee8registryNtB4_14DeviceRegistry14set_brightness0B6_
FN:646,_RNCNvMNtCseqgZqxOBWDO_5govee8registryNtB4_14DeviceRegistry14set_color_temp0B6_
FN:782,_RNCNvMNtCseqgZqxOBWDO_5govee8registryNtB4_14DeviceRegistry15group_set_color0B6_
FN:752,_RNCNvMNtCseqgZqxOBWDO_5govee8registryNtB4_14DeviceRegistry15group_set_power0B6_
FN:813,_RNCNvMNtCseqgZqxOBWDO_5govee8registryNtB4_14DeviceRegistry19start_with_backends0B6_
FN:767,_RNCNvMNtCseqgZqxOBWDO_5govee8registryNtB4_14DeviceRegistry20group_set_brightness0B6_
FN:797,_RNCNvMNtCseqgZqxOBWDO_5govee8registryNtB4_14DeviceRegistry20group_set_color_temp0B6_
FN:131,_RNCNvMNtCseqgZqxOBWDO_5govee8registryNtB4_14DeviceRegistry5build0B6_
FN:87,_RNCNvMNtCseqgZqxOBWDO_5govee8registryNtB4_14DeviceRegistry5start0B6_
FN:362,_RNCNvMNtCseqgZqxOBWDO_5govee8registryNtB4_14DeviceRegistry7devices0B6_
FN:466,_RNCNvMNtCseqgZqxOBWDO_5govee8registryNtB4_14DeviceRegistry9get_state0B6_
FN:611,_RNCNvMNtCseqgZqxOBWDO_5govee8registryNtB4_14DeviceRegistry9set_color0B6_
FN:545,_RNCNvMNtCseqgZqxOBWDO_5govee8registryNtB4_14DeviceRegistry9set_power0B6_
FN:855,_RNCNvNtCseqgZqxOBWDO_5govee8registry19reconciliation_loop0B5_
FNDA:0,_RNCNvMNtCsf2i7I5CTk8o_5govee8registryNtB4_14DeviceRegistry10get_devices_0B6_
FNDA:0,_RNCNvMNtCsf2i7I5CTk8o_5govee8registryNtB4_14DeviceRegistry11backend_for0B6_
FNDA:0,_RNCNvMNtCsf2i7I5CTk8o_5govee8registryNtB4_14DeviceRegistry11backend_fors0_0B6_
FNDA:0,_RNCNvMNtCsf2i7I5CTk8o_5govee8registryNtB4_14DeviceRegistry11backend_fors_0B6_
FNDA:0,_RNCNvMNtCsf2i7I5CTk8o_5govee8registryNtB4_14DeviceRegistry13resolve_group0B6_
FNDA:0,_RNCNvMNtCsf2i7I5CTk8o_5govee8registryNtB4_14DeviceRegistry14backend_status0B6_
FNDA:0,_RNCNvMNtCsf2i7I5CTk8o_5govee8registryNtB4_14DeviceRegistry7devices0B6_
FNDA:0,_RNvXs0_NtCsf2i7I5CTk8o_5govee8registryNtB5_14DeviceRegistryNtNtNtCs85QQFkKrybG_4core3ops4drop4Drop4drop
FNDA:0,_RINvNvNtCseqgZqxOBWDO_5govee8registry1__17__assert_send_syncpEB6_
FNDA:0,_RNvNvNtCseqgZqxOBWDO_5govee8registry1__7__assert
FNDA:66,_RNvMNtCseqgZqxOBWDO_5govee8registryNtB2_14DeviceRegistry10get_device
FNDA:10,_RNvMNtCseqgZqxOBWDO_5govee8registryNtB2_14DeviceRegistry11apply_scene
FNDA:115,_RNvMNtCseqgZqxOBWDO_5govee8registryNtB2_14DeviceRegistry11backend_for
FNDA:40,_RNvMNtCseqgZqxOBWDO_5govee8registryNtB2_14DeviceRegistry12update_cache
FNDA:18,_RNvMNtCseqgZqxOBWDO_5govee8registryNtB2_14DeviceRegistry13resolve_group
FNDA:1,_RNvMNtCseqgZqxOBWDO_5govee8registryNtB2_14DeviceRegistry14backend_status
FNDA:17,_RNvMNtCseqgZqxOBWDO_5govee8registryNtB2_14DeviceRegistry14set_brightness
FNDA:12,_RNvMNtCseqgZqxOBWDO_5govee8registryNtB2_14DeviceRegistry14set_color_temp
FNDA:1,_RNvMNtCseqgZqxOBWDO_5govee8registryNtB2_14DeviceRegistry15group_set_color
FNDA:4,_RNvMNtCseqgZqxOBWDO_5govee8registryNtB2_14DeviceRegistry15group_set_power
FNDA:11,_RNvMNtCseqgZqxOBWDO_5govee8registryNtB2_14DeviceRegistry16fallback_backend
FNDA:11,_RNvMNtCseqgZqxOBWDO_5govee8registryNtB2_14DeviceRegistry18is_transport_error
FNDA:76,_RNvMNtCseqgZqxOBWDO_5govee8registryNtB2_14DeviceRegistry19start_with_backends
FNDA:1,_RNvMNtCseqgZqxOBWDO_5govee8registryNtB2_14DeviceRegistry20group_set_brightness
FNDA:1,_RNvMNtCseqgZqxOBWDO_5govee8registryNtB2_14DeviceRegistry20group_set_color_temp
FNDA:76,_RNvMNtCseqgZqxOBWDO_5govee8registryNtB2_14DeviceRegistry5build
FNDA:1,_RNvMNtCseqgZqxOBWDO_5govee8registryNtB2_14DeviceRegistry5start
FNDA:10,_RNvMNtCseqgZqxOBWDO_5govee8registryNtB2_14DeviceRegistry6scenes
FNDA:15,_RNvMNtCseqgZqxOBWDO_5govee8registryNtB2_14DeviceRegistry7devices
FNDA:19,_RNvMNtCseqgZqxOBWDO_5govee8registryNtB2_14DeviceRegistry7resolve
FNDA:62,_RNvMNtCseqgZqxOBWDO_5govee8registryNtB2_14DeviceRegistry9get_state
FNDA:9,_RNvMNtCseqgZqxOBWDO_5govee8registryNtB2_14DeviceRegistry9set_color
FNDA:8,_RNvMNtCseqgZqxOBWDO_5govee8registryNtB2_14DeviceRegistry9set_power
FNDA:79,_RNvNtCseqgZqxOBWDO_5govee8registry19reconciliation_loop
FNDA:9,_RNvNtCseqgZqxOBWDO_5govee8registry21collect_group_results
FNDA:1,_RNvXs_NtCseqgZqxOBWDO_5govee8registryNtB4_14DeviceRegistryNtNtCs85QQFkKrybG_4core3fmt5Debug3fmt
FNDA:28,_RNvNtNtCseqgZqxOBWDO_5govee8registry5tests10make_state
FNDA:89,_RNvNtNtCseqgZqxOBWDO_5govee8registry5tests11make_device
FNDA:45,_RNvNtNtCseqgZqxOBWDO_5govee8registry5tests14default_config
FNDA:9,_RNvNtNtCseqgZqxOBWDO_5govee8registry5tests18config_with_groups
FNDA:14,_RNvNtNtCseqgZqxOBWDO_5govee8registry5tests26mock_with_device_and_state
FNDA:3,_RNvNtNtCseqgZqxOBWDO_5govee8registry5tests31mock_with_two_devices_and_state
FNDA:1,_RNvNtNtCseqgZqxOBWDO_5govee8registry5testss_12debug_format
FNDA:1,_RNvNtNtCseqgZqxOBWDO_5govee8registry5testss_16cloud_only_merge
FNDA:1,_RNvNtNtCseqgZqxOBWDO_5govee8registry5testss_16local_only_merge
FNDA:1,_RNvNtNtCseqgZqxOBWDO_5govee8registry5testss_16resolve_by_alias
FNDA:1,_RNvNtNtCseqgZqxOBWDO_5govee8registry5testss_19get_device_existing
FNDA:1,_RNvNtNtCseqgZqxOBWDO_5govee8registry5testss_20apply_scene_to_group
FNDA:1,_RNvNtNtCseqgZqxOBWDO_5govee8registry5testss_20get_device_not_found
FNDA:1,_RNvNtNtCseqgZqxOBWDO_5govee8registry5testss_21group_partial_failure
FNDA:1,_RNvNtNtCseqgZqxOBWDO_5govee8registry5testss_24cache_hit_returns_cached
FNDA:1,_RNvNtNtCseqgZqxOBWDO_5govee8registry5testss_25arc_clone_shares_registry
FNDA:1,_RNvNtNtCseqgZqxOBWDO_5govee8registry5testss_25cloud_only_mode_all_cloud
FNDA:1,_RNvNtNtCseqgZqxOBWDO_5govee8registry5testss_25integration_backend_modes
FNDA:1,_RNvNtNtCseqgZqxOBWDO_5govee8registry5testss_25resolve_group_known_group
FNDA:1,_RNvNtNtCseqgZqxOBWDO_5govee8registry5testss_26apply_scene_to_all_devices
FNDA:1,_RNvNtNtCseqgZqxOBWDO_5govee8registry5testss_26auto_no_api_key_local_only
FNDA:1,_RNvNtNtCseqgZqxOBWDO_5govee8registry5testss_26backend_for_unknown_device
FNDA:1,_RNvNtNtCseqgZqxOBWDO_5govee8registry5testss_26cache_miss_queries_backend
FNDA:1,_RNvNtNtCseqgZqxOBWDO_5govee8registry5testss_26group_deduplicates_members
FNDA:1,_RNvNtNtCseqgZqxOBWDO_5govee8registry5testss_26no_backends_empty_registry
FNDA:1,_RNvNtNtCseqgZqxOBWDO_5govee8registry5testss_27apply_scene_partial_failure
FNDA:1,_RNvNtNtCseqgZqxOBWDO_5govee8registry5testss_27backend_for_routes_to_cloud
FNDA:1,_RNvNtNtCseqgZqxOBWDO_5govee8registry5testss_27backend_for_routes_to_local
FNDA:1,_RNvNtNtCseqgZqxOBWDO_5govee8registry5testss_27group_set_color_all_succeed
FNDA:1,_RNvNtNtCseqgZqxOBWDO_5govee8registry5testss_27group_set_power_all_succeed
FNDA:1,_RNvNtNtCseqgZqxOBWDO_5govee8registry5testss_28apply_scene_user_defined_rgb
FNDA:1,_RNvNtNtCseqgZqxOBWDO_5govee8registry5testss_28apply_scene_with_device_name
FNDA:1,_RNvNtNtCseqgZqxOBWDO_5govee8registry5testss_28group_resolves_alias_members
FNDA:1,_RNvNtNtCseqgZqxOBWDO_5govee8registry5testss_28integration_alias_resolution
FNDA:1,_RNvNtNtCseqgZqxOBWDO_5govee8registry5testss_29apply_scene_single_device_rgb
FNDA:1,_RNvNtNtCseqgZqxOBWDO_5govee8registry5testss_29disjoint_devices_all_included
FNDA:1,_RNvNtNtCseqgZqxOBWDO_5govee8registry5testss_29integration_merge_and_resolve
FNDA:1,_RNvNtNtCseqgZqxOBWDO_5govee8registry5testss_29stale_cache_requeries_backend
FNDA:1,_RNvNtNtCseqgZqxOBWDO_5govee8registry5testss_30group_set_power_empty_group_ok
FNDA:1,_RNvNtNtCseqgZqxOBWDO_5govee8registry5testss_30resolve_alias_case_insensitive
FNDA:1,_RNvNtNtCseqgZqxOBWDO_5govee8registry5testss_30resolve_group_case_insensitive
FNDA:1,_RNvNtNtCseqgZqxOBWDO_5govee8registry5testss_32group_set_brightness_all_succeed
FNDA:1,_RNvNtNtCseqgZqxOBWDO_5govee8registry5testss_32group_set_color_temp_all_succeed
FNDA:1,_RNvNtNtCseqgZqxOBWDO_5govee8registry5testss_32integration_scene_apply_to_group
FNDA:1,_RNvNtNtCseqgZqxOBWDO_5govee8registry5testss_33cloud_only_no_fallback_on_failure
FNDA:1,_RNvNtNtCseqgZqxOBWDO_5govee8registry5testss_33reconciliation_detects_divergence
FNDA:1,_RNvNtNtCseqgZqxOBWDO_5govee8registry5testss_34group_unresolvable_member_excluded
FNDA:1,_RNvNtNtCseqgZqxOBWDO_5govee8registry5testss_34resolve_unknown_name_returns_error
FNDA:1,_RNvNtNtCseqgZqxOBWDO_5govee8registry5testss_35apply_scene_user_defined_color_temp
FNDA:1,_RNvNtNtCseqgZqxOBWDO_5govee8registry5testss_35backend_status_reflects_assignments
FNDA:1,_RNvNtNtCseqgZqxOBWDO_5govee8registry5testss_35cloud_only_without_api_key_is_error
FNDA:1,_RNvNtNtCseqgZqxOBWDO_5govee8registry5testss_35resolve_group_unknown_returns_error
FNDA:1,_RNvNtNtCseqgZqxOBWDO_5govee8registry5testss_35update_cache_ignores_unknown_device
FNDA:1,_RNvNtNtCseqgZqxOBWDO_5govee8registry5testss_36apply_scene_single_device_color_temp
FNDA:1,_RNvNtNtCseqgZqxOBWDO_5govee8registry5testss_36auto_mode_cloud_device_is_resolvable
FNDA:1,_RNvNtNtCseqgZqxOBWDO_5govee8registry5testss_36resolve_by_canonical_name_exact_case
FNDA:1,_RNvNtNtCseqgZqxOBWDO_5govee8registry5testss_36resolve_multiple_aliases_same_device
FNDA:1,_RNvNtNtCseqgZqxOBWDO_5govee8registry5testss_37auto_mode_fallback_on_primary_failure
FNDA:1,_RNvNtNtCseqgZqxOBWDO_5govee8registry5testss_37backend_for_unavailable_returns_error
FNDA:1,_RNvNtNtCseqgZqxOBWDO_5govee8registry5testss_38reconciliation_confirms_matching_state
FNDA:1,_RNvNtNtCseqgZqxOBWDO_5govee8registry5testss_38reconciliation_exits_when_weak_is_dead
FNDA:1,_RNvNtNtCseqgZqxOBWDO_5govee8registry5testss_38resolve_name_collision_last_by_id_wins
FNDA:1,_RNvNtNtCseqgZqxOBWDO_5govee8registry5testss_38set_color_unknown_device_returns_error
FNDA:1,_RNvNtNtCseqgZqxOBWDO_5govee8registry5testss_38set_power_unknown_device_returns_error
FNDA:1,_RNvNtNtCseqgZqxOBWDO_5govee8registry5testss_38set_power_updates_cache_optimistically
FNDA:1,_RNvNtNtCseqgZqxOBWDO_5govee8registry5testss_39apply_scene_unknown_scene_returns_error
FNDA:1,_RNvNtNtCseqgZqxOBWDO_5govee8registry5testss_39set_color_updates_color_and_clears_temp
FNDA:1,_RNvNtNtCseqgZqxOBWDO_5govee8registry5testss_40overlapping_device_backend_field_updated
FNDA:1,_RNvNtNtCseqgZqxOBWDO_5govee8registry5testss_40resolve_by_canonical_name_different_case
FNDA:1,_RNvNtNtCseqgZqxOBWDO_5govee8registry5testss_41group_command_unknown_group_returns_error
FNDA:1,_RNvNtNtCseqgZqxOBWDO_5govee8registry5testss_43local_only_mode_excludes_cloud_only_devices
FNDA:1,_RNvNtNtCseqgZqxOBWDO_5govee8registry5testss_43set_brightness_unknown_device_returns_error
FNDA:1,_RNvNtNtCseqgZqxOBWDO_5govee8registry5testss_43set_brightness_updates_cache_optimistically
FNDA:1,_RNvNtNtCseqgZqxOBWDO_5govee8registry5testss_43set_color_temp_unknown_device_returns_error
FNDA:1,_RNvNtNtCseqgZqxOBWDO_5govee8registry5testss_44set_color_temp_updates_temp_and_resets_color
FNDA:1,_RNvNtNtCseqgZqxOBWDO_5govee8registry5testss_45auto_mode_local_for_discovered_cloud_for_rest
FNDA:1,_RNvNtNtCseqgZqxOBWDO_5govee8registry5testss_45local_only_group_excludes_pruned_cloud_device
FNDA:1,_RNvNtNtCseqgZqxOBWDO_5govee8registry5testss_45resolve_alias_target_not_found_not_registered
FNDA:1,_RNvNtNtCseqgZqxOBWDO_5govee8registry5testss_46update_cache_optimistic_reflected_in_get_state
FNDA:1,_RNvNtNtCseqgZqxOBWDO_5govee8registry5testss_49local_only_resolve_cloud_device_returns_not_found
FNDA:1,_RNvNtNtCseqgZqxOBWDO_5govee8registry5testss_50overlapping_macs_uses_cloud_name_and_local_backend
FNDA:0,_RNvXNCNvNtNtCseqgZqxOBWDO_5govee8registry5testss_21group_partial_failure0NtB2_16SelectiveBackendNtNtBa_7backend12GoveeBackend11list_scenes
FNDA:0,_RNvXNCNvNtNtCseqgZqxOBWDO_5govee8registry5testss_21group_partial_failure0NtB2_16SelectiveBackendNtNtBa_7backend12GoveeBackend12backend_type
FNDA:1,_RNvXNCNvNtNtCseqgZqxOBWDO_5govee8registry5testss_21group_partial_failure0NtB2_16SelectiveBackendNtNtBa_7backend12GoveeBackend12list_devices
FNDA:0,_RNvXNCNvNtNtCseqgZqxOBWDO_5govee8registry5testss_21group_partial_failure0NtB2_16SelectiveBackendNtNtBa_7backend12GoveeBackend13set_diy_scene
FNDA:0,_RNvXNCNvNtNtCseqgZqxOBWDO_5govee8registry5testss_21group_partial_failure0NtB2_16SelectiveBackendNtNtBa_7backend12GoveeBackend13set_work_mode
FNDA:0,_RNvXNCNvNtNtCseqgZqxOBWDO_5govee8registry5testss_21group_partial_failure0NtB2_16SelectiveBackendNtNtBa_7backend12GoveeBackend14set_brightness
FNDA:0,_RNvXNCNvNtNtCseqgZqxOBWDO_5govee8registry5testss_21group_partial_failure0NtB2_16SelectiveBackendNtNtBa_7backend12GoveeBackend14set_color_temp
FNDA:0,_RNvXNCNvNtNtCseqgZqxOBWDO_5govee8registry5testss_21group_partial_failure0NtB2_16SelectiveBackendNtNtBa_7backend12GoveeBackend15list_diy_scenes
FNDA:0,_RNvXNCNvNtNtCseqgZqxOBWDO_5govee8registry5testss_21group_partial_failure0NtB2_16SelectiveBackendNtNtBa_7backend12GoveeBackend15list_work_modes
FNDA:0,_RNvXNCNvNtNtCseqgZqxOBWDO_5govee8registry5testss_21group_partial_failure0NtB2_16SelectiveBackendNtNtBa_7backend12GoveeBackend17set_segment_color
FNDA:0,_RNvXNCNvNtNtCseqgZqxOBWDO_5govee8registry5testss_21group_partial_failure0NtB2_16SelectiveBackendNtNtBa_7backend12GoveeBackend22set_segment_brightness
FNDA:1,_RNvXNCNvNtNtCseqgZqxOBWDO_5govee8registry5testss_21group_partial_failure0NtB2_16SelectiveBackendNtNtBa_7backend12GoveeBackend9get_state
FNDA:0,_RNvXNCNvNtNtCseqgZqxOBWDO_5govee8registry5testss_21group_partial_failure0NtB2_16SelectiveBackendNtNtBa_7backend12GoveeBackend9set_color
FNDA:2,_RNvXNCNvNtNtCseqgZqxOBWDO_5govee8registry5testss_21group_partial_failure0NtB2_16SelectiveBackendNtNtBa_7backend12GoveeBackend9set_power
FNDA:0,_RNvXNCNvNtNtCseqgZqxOBWDO_5govee8registry5testss_21group_partial_failure0NtB2_16SelectiveBackendNtNtBa_7backend12GoveeBackend9set_scene
FNDA:0,_RNvXNCNvNtNtCseqgZqxOBWDO_5govee8registry5testss_27apply_scene_partial_failure0NtB2_16SelectiveBackendNtNtBa_7backend12GoveeBackend11list_scenes
FNDA:0,_RNvXNCNvNtNtCseqgZqxOBWDO_5govee8registry5testss_27apply_scene_partial_failure0NtB2_16SelectiveBackendNtNtBa_7backend12GoveeBackend12backend_type
FNDA:1,_RNvXNCNvNtNtCseqgZqxOBWDO_5govee8registry5testss_27apply_scene_partial_failure0NtB2_16SelectiveBackendNtNtBa_7backend12GoveeBackend12list_devices
FNDA:0,_RNvXNCNvNtNtCseqgZqxOBWDO_5govee8registry5testss_27apply_scene_partial_failure0NtB2_16SelectiveBackendNtNtBa_7backend12GoveeBackend13set_diy_scene
FNDA:0,_RNvXNCNvNtNtCseqgZqxOBWDO_5govee8registry5testss_27apply_scene_partial_failure0NtB2_16SelectiveBackendNtNtBa_7backend12GoveeBackend13set_work_mode
FNDA:1,_RNvXNCNvNtNtCseqgZqxOBWDO_5govee8registry5testss_27apply_scene_partial_failure0NtB2_16SelectiveBackendNtNtBa_7backend12GoveeBackend14set_brightness
FNDA:2,_RNvXNCNvNtNtCseqgZqxOBWDO_5govee8registry5testss_27apply_scene_partial_failure0NtB2_16SelectiveBackendNtNtBa_7backend12GoveeBackend14set_color_temp
FNDA:0,_RNvXNCNvNtNtCseqgZqxOBWDO_5govee8registry5testss_27apply_scene_partial_failure0NtB2_16SelectiveBackendNtNtBa_7backend12GoveeBackend15list_diy_scenes
FNDA:0,_RNvXNCNvNtNtCseqgZqxOBWDO_5govee8registry5testss_27apply_scene_partial_failure0NtB2_16SelectiveBackendNtNtBa_7backend12GoveeBackend15list_work_modes
FNDA:0,_RNvXNCNvNtNtCseqgZqxOBWDO_5govee8registry5testss_27apply_scene_partial_failure0NtB2_16SelectiveBackendNtNtBa_7backend12GoveeBackend17set_segment_color
FNDA:0,_RNvXNCNvNtNtCseqgZqxOBWDO_5govee8registry5testss_27apply_scene_partial_failure0NtB2_16SelectiveBackendNtNtBa_7backend12GoveeBackend22set_segment_brightness
FNDA:1,_RNvXNCNvNtNtCseqgZqxOBWDO_5govee8registry5testss_27apply_scene_partial_failure0NtB2_16SelectiveBackendNtNtBa_7backend12GoveeBackend9get_state
FNDA:0,_RNvXNCNvNtNtCseqgZqxOBWDO_5govee8registry5testss_27apply_scene_partial_failure0NtB2_16SelectiveBackendNtNtBa_7backend12GoveeBackend9set_color
FNDA:0,_RNvXNCNvNtNtCseqgZqxOBWDO_5govee8registry5testss_27apply_scene_partial_failure0NtB2_16SelectiveBackendNtNtBa_7backend12GoveeBackend9set_power
FNDA:0,_RNvXNCNvNtNtCseqgZqxOBWDO_5govee8registry5testss_27apply_scene_partial_failure0NtB2_16SelectiveBackendNtNtBa_7backend12GoveeBackend9set_scene
FNDA:1,_RNCNCNvNtNtCseqgZqxOBWDO_5govee8registry5testss_33cloud_only_no_fallback_on_failure00B9_
FNDA:1,_RNCNCNvNtNtCseqgZqxOBWDO_5govee8registry5testss_33reconciliation_detects_divergence00B9_
FNDA:8,_RNCNCNvNtNtCseqgZqxOBWDO_5govee8registry5testss_37auto_mode_fallback_on_primary_failure00B9_
FNDA:1,_RNCNCNvNtNtCseqgZqxOBWDO_5govee8registry5testss_38reconciliation_confirms_matching_state00B9_
FNDA:1,_RNCNvNtNtCseqgZqxOBWDO_5govee8registry5testss_12debug_format0B7_
FNDA:1,_RNCNvNtNtCseqgZqxOBWDO_5govee8registry5testss_16cloud_only_merge0B7_
FNDA:1,_RNCNvNtNtCseqgZqxOBWDO_5govee8registry5testss_16local_only_merge0B7_
FNDA:1,_RNCNvNtNtCseqgZqxOBWDO_5govee8registry5testss_16resolve_by_alias0B7_
FNDA:1,_RNCNvNtNtCseqgZqxOBWDO_5govee8registry5testss_19get_device_existing0B7_
FNDA:1,_RNCNvNtNtCseqgZqxOBWDO_5govee8registry5testss_20apply_scene_to_group0B7_
FNDA:1,_RNCNvNtNtCseqgZqxOBWDO_5govee8registry5testss_20get_device_not_found0B7_
FNDA:1,_RNCNvNtNtCseqgZqxOBWDO_5govee8registry5testss_21group_partial_failure0B7_
FNDA:1,_RNCNvNtNtCseqgZqxOBWDO_5govee8registry5testss_24cache_hit_returns_cached0B7_
FNDA:1,_RNCNvNtNtCseqgZqxOBWDO_5govee8registry5testss_25arc_clone_shares_registry0B7_
FNDA:1,_RNCNvNtNtCseqgZqxOBWDO_5govee8registry5testss_25cloud_only_mode_all_cloud0B7_
FNDA:1,_RNCNvNtNtCseqgZqxOBWDO_5govee8registry5testss_25integration_backend_modes0B7_
FNDA:1,_RNCNvNtNtCseqgZqxOBWDO_5govee8registry5testss_25resolve_group_known_group0B7_
FNDA:1,_RNCNvNtNtCseqgZqxOBWDO_5govee8registry5testss_26apply_scene_to_all_devices0B7_
FNDA:1,_RNCNvNtNtCseqgZqxOBWDO_5govee8registry5testss_26auto_no_api_key_local_only0B7_
FNDA:1,_RNCNvNtNtCseqgZqxOBWDO_5govee8registry5testss_26backend_for_unknown_device0B7_
FNDA:1,_RNCNvNtNtCseqgZqxOBWDO_5govee8registry5testss_26cache_miss_queries_backend0B7_
FNDA:1,_RNCNvNtNtCseqgZqxOBWDO_5govee8registry5testss_26group_deduplicates_members0B7_
FNDA:1,_RNCNvNtNtCseqgZqxOBWDO_5govee8registry5testss_26no_backends_empty_registry0B7_
FNDA:1,_RNCNvNtNtCseqgZqxOBWDO_5govee8registry5testss_27apply_scene_partial_failure0B7_
FNDA:1,_RNCNvNtNtCseqgZqxOBWDO_5govee8registry5testss_27backend_for_routes_to_cloud0B7_
FNDA:1,_RNCNvNtNtCseqgZqxOBWDO_5govee8registry5testss_27backend_for_routes_to_local0B7_
FNDA:1,_RNCNvNtNtCseqgZqxOBWDO_5govee8registry5testss_27group_set_color_all_succeed0B7_
FNDA:1,_RNCNvNtNtCseqgZqxOBWDO_5govee8registry5testss_27group_set_power_all_succeed0B7_
FNDA:1,_RNCNvNtNtCseqgZqxOBWDO_5govee8registry5testss_28apply_scene_user_defined_rgb0B7_
FNDA:1,_RNCNvNtNtCseqgZqxOBWDO_5govee8registry5testss_28apply_scene_with_device_name0B7_
FNDA:1,_RNCNvNtNtCseqgZqxOBWDO_5govee8registry5testss_28group_resolves_alias_members0B7_
FNDA:1,_RNCNvNtNtCseqgZqxOBWDO_5govee8registry5testss_28integration_alias_resolution0B7_
FNDA:1,_RNCNvNtNtCseqgZqxOBWDO_5govee8registry5testss_29apply_scene_single_device_rgb0B7_
FNDA:1,_RNCNvNtNtCseqgZqxOBWDO_5govee8registry5testss_29disjoint_devices_all_included0B7_
FNDA:1,_RNCNvNtNtCseqgZqxOBWDO_5govee8registry5testss_29integration_merge_and_resolve0B7_
FNDA:1,_RNCNvNtNtCseqgZqxOBWDO_5govee8registry5testss_29stale_cache_requeries_backend0B7_
FNDA:1,_RNCNvNtNtCseqgZqxOBWDO_5govee8registry5testss_30group_set_power_empty_group_ok0B7_
FNDA:1,_RNCNvNtNtCseqgZqxOBWDO_5govee8registry5testss_30resolve_alias_case_insensitive0B7_
FNDA:1,_RNCNvNtNtCseqgZqxOBWDO_5govee8registry5testss_30resolve_group_case_insensitive0B7_
FNDA:1,_RNCNvNtNtCseqgZqxOBWDO_5govee8registry5testss_32group_set_brightness_all_succeed0B7_
FNDA:1,_RNCNvNtNtCseqgZqxOBWDO_5govee8registry5testss_32group_set_color_temp_all_succeed0B7_
FNDA:1,_RNCNvNtNtCseqgZqxOBWDO_5govee8registry5testss_32integration_scene_apply_to_group0B7_
FNDA:1,_RNCNvNtNtCseqgZqxOBWDO_5govee8registry5testss_33cloud_only_no_fallback_on_failure0B7_
FNDA:1,_RNCNvNtNtCseqgZqxOBWDO_5govee8registry5testss_33reconciliation_detects_divergence0B7_
FNDA:1,_RNCNvNtNtCseqgZqxOBWDO_5govee8registry5testss_34group_unresolvable_member_excluded0B7_
FNDA:1,_RNCNvNtNtCseqgZqxOBWDO_5govee8registry5testss_34resolve_unknown_name_returns_error0B7_
FNDA:1,_RNCNvNtNtCseqgZqxOBWDO_5govee8registry5testss_35apply_scene_user_defined_color_temp0B7_
FNDA:1,_RNCNvNtNtCseqgZqxOBWDO_5govee8registry5testss_35backend_status_reflects_assignments0B7_
FNDA:1,_RNCNvNtNtCseqgZqxOBWDO_5govee8registry5testss_35cloud_only_without_api_key_is_error0B7_
FNDA:1,_RNCNvNtNtCseqgZqxOBWDO_5govee8registry5testss_35resolve_group_unknown_returns_error0B7_
FNDA:1,_RNCNvNtNtCseqgZqxOBWDO_5govee8registry5testss_35update_cache_ignores_unknown_device0B7_
FNDA:1,_RNCNvNtNtCseqgZqxOBWDO_5govee8registry5testss_36apply_scene_single_device_color_temp0B7_
FNDA:1,_RNCNvNtNtCseqgZqxOBWDO_5govee8registry5testss_36auto_mode_cloud_device_is_resolvable0B7_
FNDA:1,_RNCNvNtNtCseqgZqxOBWDO_5govee8registry5testss_36resolve_by_canonical_name_exact_case0B7_
FNDA:1,_RNCNvNtNtCseqgZqxOBWDO_5govee8registry5testss_36resolve_multiple_aliases_same_device0B7_
FNDA:1,_RNCNvNtNtCseqgZqxOBWDO_5govee8registry5testss_37auto_mode_fallback_on_primary_failure0B7_
FNDA:1,_RNCNvNtNtCseqgZqxOBWDO_5govee8registry5testss_37backend_for_unavailable_returns_error0B7_
FNDA:1,_RNCNvNtNtCseqgZqxOBWDO_5govee8registry5testss_38reconciliation_confirms_matching_state0B7_
FNDA:1,_RNCNvNtNtCseqgZqxOBWDO_5govee8registry5testss_38reconciliation_exits_when_weak_is_dead0B7_
FNDA:1,_RNCNvNtNtCseqgZqxOBWDO_5govee8registry5testss_38resolve_name_collision_last_by_id_wins0B7_
FNDA:1,_RNCNvNtNtCseqgZqxOBWDO_5govee8registry5testss_38set_color_unknown_device_returns_error0B7_
FNDA:1,_RNCNvNtNtCseqgZqxOBWDO_5govee8registry5testss_38set_power_unknown_device_returns_error0B7_
FNDA:1,_RNCNvNtNtCseqgZqxOBWDO_5govee8registry5testss_38set_power_updates_cache_optimistically0B7_
FNDA:1,_RNCNvNtNtCseqgZqxOBWDO_5govee8registry5testss_39apply_scene_unknown_scene_returns_error0B7_
FNDA:1,_RNCNvNtNtCseqgZqxOBWDO_5govee8registry5testss_39set_color_updates_color_and_clears_temp0B7_
FNDA:1,_RNCNvNtNtCseqgZqxOBWDO_5govee8registry5testss_40overlapping_device_backend_field_updated0B7_
FNDA:1,_RNCNvNtNtCseqgZqxOBWDO_5govee8registry5testss_40resolve_by_canonical_name_different_case0B7_
FNDA:1,_RNCNvNtNtCseqgZqxOBWDO_5govee8registry5testss_41group_command_unknown_group_returns_error0B7_
FNDA:1,_RNCNvNtNtCseqgZqxOBWDO_5govee8registry5testss_43local_only_mode_excludes_cloud_only_devices0B7_
FNDA:1,_RNCNvNtNtCseqgZqxOBWDO_5govee8registry5testss_43set_brightness_unknown_device_returns_error0B7_
FNDA:1,_RNCNvNtNtCseqgZqxOBWDO_5govee8registry5testss_43set_brightness_updates_cache_optimistically0B7_
FNDA:1,_RNCNvNtNtCseqgZqxOBWDO_5govee8registry5testss_43set_color_temp_unknown_device_returns_error0B7_
FNDA:1,_RNCNvNtNtCseqgZqxOBWDO_5govee8registry5testss_44set_color_temp_updates_temp_and_resets_color0B7_
FNDA:1,_RNCNvNtNtCseqgZqxOBWDO_5govee8registry5testss_45auto_mode_local_for_discovered_cloud_for_rest0B7_
FNDA:1,_RNCNvNtNtCseqgZqxOBWDO_5govee8registry5testss_45local_only_group_excludes_pruned_cloud_device0B7_
FNDA:1,_RNCNvNtNtCseqgZqxOBWDO_5govee8registry5testss_45resolve_alias_target_not_found_not_registered0B7_
FNDA:1,_RNCNvNtNtCseqgZqxOBWDO_5govee8registry5testss_46update_cache_optimistic_reflected_in_get_state0B7_
FNDA:1,_RNCNvNtNtCseqgZqxOBWDO_5govee8registry5testss_49local_only_resolve_cloud_device_returns_not_found0B7_
FNDA:1,_RNCNvNtNtCseqgZqxOBWDO_5govee8registry5testss_50overlapping_macs_uses_cloud_name_and_local_backend0B7_
FNDA:76,_RNvXs0_NtCseqgZqxOBWDO_5govee8registryNtB5_14DeviceRegistryNtNtNtCs85QQFkKrybG_4core3ops4drop4Drop4drop
FNDA:13,_RNCNCNCNvMNtCseqgZqxOBWDO_5govee8registryNtB8_14DeviceRegistry11apply_scene000Ba_
FNDA:13,_RNCNCNvMNtCseqgZqxOBWDO_5govee8registryNtB6_14DeviceRegistry11apply_scene00B8_
FNDA:1,_RNCNCNvMNtCseqgZqxOBWDO_5govee8registryNtB6_14DeviceRegistry15group_set_color00B8_
FNDA:4,_RNCNCNvMNtCseqgZqxOBWDO_5govee8registryNtB6_14DeviceRegistry15group_set_power00B8_
FNDA:1,_RNCNCNvMNtCseqgZqxOBWDO_5govee8registryNtB6_14DeviceRegistry20group_set_brightness00B8_
FNDA:1,_RNCNCNvMNtCseqgZqxOBWDO_5govee8registryNtB6_14DeviceRegistry20group_set_color_temp00B8_
FNDA:8,_RNCNCNvMNtCseqgZqxOBWDO_5govee8registryNtB6_14DeviceRegistry5build00B8_
FNDA:19,_RNCNCNvMNtCseqgZqxOBWDO_5govee8registryNtB6_14DeviceRegistry5build0s0_0B8_
FNDA:5,_RNCNCNvMNtCseqgZqxOBWDO_5govee8registryNtB6_14DeviceRegistry5build0s1_0B8_
FNDA:83,_RNCNCNvMNtCseqgZqxOBWDO_5govee8registryNtB6_14DeviceRegistry5build0s_0B8_
FNDA:23,_RNCNCNvNtCseqgZqxOBWDO_5govee8registry19reconciliation_loop00B7_
FNDA:2,_RNCNvMNtCseqgZqxOBWDO_5govee8registryNtB4_14DeviceRegistry10get_devices_0B6_
FNDA:10,_RNCNvMNtCseqgZqxOBWDO_5govee8registryNtB4_14DeviceRegistry11apply_scene0B6_
FNDA:6,_RNCNvMNtCseqgZqxOBWDO_5govee8registryNtB4_14DeviceRegistry11backend_for0B6_
FNDA:0,_RNCNvMNtCseqgZqxOBWDO_5govee8registryNtB4_14DeviceRegistry11backend_fors0_0B6_
FNDA:0,_RNCNvMNtCseqgZqxOBWDO_5govee8registryNtB4_14DeviceRegistry11backend_fors_0B6_
FNDA:40,_RNCNvMNtCseqgZqxOBWDO_5govee8registryNtB4_14DeviceRegistry12update_cache0B6_
FNDA:2,_RNCNvMNtCseqgZqxOBWDO_5govee8registryNtB4_14DeviceRegistry13resolve_group0B6_
FNDA:2,_RNCNvMNtCseqgZqxOBWDO_5govee8registryNtB4_14DeviceRegistry14backend_status0B6_
FNDA:17,_RNCNvMNtCseqgZqxOBWDO_5govee8registryNtB4_14DeviceRegistry14set_brightness0B6_
FNDA:12,_RNCNvMNtCseqgZqxOBWDO_5govee8registryNtB4_14DeviceRegistry14set_color_temp0B6_
FNDA:1,_RNCNvMNtCseqgZqxOBWDO_5govee8registryNtB4_14DeviceRegistry15group_set_color0B6_
FNDA:4,_RNCNvMNtCseqgZqxOBWDO_5govee8registryNtB4_14DeviceRegistry15group_set_power0B6_
FNDA:76,_RNCNvMNtCseqgZqxOBWDO_5govee8registryNtB4_14DeviceRegistry19start_with_backends0B6_
FNDA:1,_RNCNvMNtCseqgZqxOBWDO_5govee8registryNtB4_14DeviceRegistry20group_set_brightness0B6_
FNDA:1,_RNCNvMNtCseqgZqxOBWDO_5govee8registryNtB4_14DeviceRegistry20group_set_color_temp0B6_
FNDA:76,_RNCNvMNtCseqgZqxOBWDO_5govee8registryNtB4_14DeviceRegistry5build0B6_
FNDA:1,_RNCNvMNtCseqgZqxOBWDO_5govee8registryNtB4_14DeviceRegistry5start0B6_
FNDA:20,_RNCNvMNtCseqgZqxOBWDO_5govee8registryNtB4_14DeviceRegistry7devices0B6_
FNDA:62,_RNCNvMNtCseqgZqxOBWDO_5govee8registryNtB4_14DeviceRegistry9get_state0B6_
FNDA:9,_RNCNvMNtCseqgZqxOBWDO_5govee8registryNtB4_14DeviceRegistry9set_color0B6_
FNDA:8,_RNCNvMNtCseqgZqxOBWDO_5govee8registryNtB4_14DeviceRegistry9set_power0B6_
FNDA:6,_RNCNvNtCseqgZqxOBWDO_5govee8registry19reconciliation_loop0B5_
FNF:252
FNH:225
DA:87,1
DA:89,1
DA:90,1
DA:91,1
DA:92,1
DA:93,0
DA:95,0
DA:96,0
DA:97,0
DA:98,0
DA:100,0
DA:103,0
DA:106,0
DA:107,0
DA:109,0
DA:110,0
DA:111,0
DA:112,0
DA:113,0
DA:114,0
DA:115,0
DA:116,0
DA:118,0
DA:123,0
DA:124,1
DA:127,76
DA:128,76
DA:129,76
DA:130,76
DA:131,76
DA:134,76
DA:135,61
DA:136,61
DA:137,0
DA:138,0
DA:139,0
DA:140,0
DA:143,15
DA:145,76
DA:146,18
DA:147,18
DA:148,0
DA:149,0
DA:150,0
DA:151,0
DA:154,58
DA:158,76
DA:160,157
DA:161,81
DA:162,81
DA:163,81
DA:164,81
DA:165,81
DA:166,81
DA:167,81
DA:168,81
DA:169,81
DA:170,81
DA:172,94
DA:173,18
DA:174,12
DA:176,12
DA:177,12
DA:178,12
DA:179,12
DA:181,0
DA:184,6
DA:185,6
DA:186,6
DA:187,6
DA:188,6
DA:189,6
DA:190,6
DA:191,6
DA:192,6
DA:193,6
DA:194,6
DA:195,6
DA:200,76
DA:202,9
DA:203,9
DA:204,9
DA:205,9
DA:206,5
DA:209,4
DA:210,8
DA:211,4
DA:212,4
DA:213,4
DA:215,0
DA:217,0
DA:218,4
DA:219,0
DA:220,0
DA:224,70
DA:225,70
DA:228,0
DA:235,83
DA:236,67
DA:237,16
DA:238,83
DA:243,76
DA:244,76
DA:245,76
DA:246,159
DA:247,83
DA:249,83
DA:250,1
DA:251,1
DA:254,0
DA:255,0
DA:257,1
DA:259,82
DA:260,82
DA:261,82
DA:266,76
DA:267,76
DA:268,8
DA:269,8
DA:270,8
DA:271,7
DA:272,7
DA:273,0
DA:277,0
DA:279,7
DA:282,1
DA:285,0
DA:293,76
DA:294,76
DA:295,15
DA:296,15
DA:297,39
DA:298,24
DA:299,24
DA:300,21
DA:301,21
DA:302,21
DA:303,20
DA:304,20
DA:307,0
DA:310,0
DA:314,3
DA:317,0
DA:322,15
DA:323,15
DA:324,0
DA:326,0
DA:327,0
DA:329,15
DA:332,76
DA:334,76
DA:335,76
DA:336,76
DA:338,76
DA:339,76
DA:340,76
DA:341,76
DA:342,76
DA:343,76
DA:344,76
DA:345,76
DA:346,76
DA:347,76
DA:348,76
DA:349,76
DA:351,76
DA:352,76
DA:353,76
DA:354,76
DA:357,76
DA:358,76
DA:361,15
DA:362,20
DA:363,15
DA:366,66
DA:367,66
DA:368,66
DA:369,66
DA:370,66
DA:371,66
DA:377,19
DA:378,19
DA:379,19
DA:380,10
DA:381,9
DA:382,9
DA:383,6
DA:384,3
DA:385,3
DA:386,19
DA:390,115
DA:391,115
DA:392,115
DA:393,115
DA:394,115
DA:396,109
DA:397,93
DA:398,93
DA:399,93
DA:400,93
DA:401,16
DA:402,16
DA:403,16
DA:404,16
DA:406,115
DA:423,11
DA:424,11
DA:425,3
DA:426,8
DA:427,8
DA:428,0
DA:429,0
DA:430,8
DA:431,0
DA:433,11
DA:440,11
DA:441,0
DA:442,11
DA:447,0
DA:451,11
DA:454,1
DA:455,1
DA:456,1
DA:457,2
DA:458,1
DA:459,1
DA:466,62
DA:467,62
DA:471,62
DA:472,62
DA:473,32
DA:475,31
DA:476,31
DA:480,31
DA:481,31
DA:482,27
DA:483,4
DA:484,4
DA:485,4
DA:487,4
DA:490,0
DA:491,0
DA:493,4
DA:495,0
DA:502,27
DA:503,27
DA:504,27
DA:505,27
DA:506,27
DA:507,27
DA:508,27
DA:509,27
DA:510,27
DA:513,27
DA:514,62
DA:520,40
DA:521,40
DA:522,40
DA:523,40
DA:524,40
DA:525,40
DA:526,40
DA:527,1
DA:528,39
DA:529,39
DA:530,39
DA:531,39
DA:532,39
DA:533,39
DA:534,39
DA:535,39
DA:536,39
DA:537,39
DA:538,40
DA:545,8
DA:546,8
DA:547,7
DA:548,3
DA:549,3
DA:551,1
DA:554,0
DA:555,0
DA:557,1
DA:559,2
DA:561,4
DA:563,5
DA:564,4
DA:565,4
DA:566,4
DA:567,1
DA:569,5
DA:570,8
DA:577,17
DA:578,17
DA:579,16
DA:580,1
DA:581,1
DA:583,1
DA:586,0
DA:587,0
DA:589,1
DA:591,0
DA:593,15
DA:595,16
DA:596,15
DA:597,15
DA:598,15
DA:599,1
DA:601,16
DA:602,17
DA:611,9
DA:612,9
DA:613,8
DA:614,1
DA:615,1
DA:617,1
DA:620,0
DA:621,0
DA:623,1
DA:625,0
DA:627,7
DA:629,8
DA:630,7
DA:631,7
DA:632,7
DA:633,7
DA:634,1
DA:636,8
DA:637,9
DA:646,12
DA:647,12
DA:648,11
DA:649,2
DA:650,2
DA:652,1
DA:655,0
DA:656,0
DA:658,1
DA:660,1
DA:662,9
DA:664,10
DA:665,9
DA:666,9
DA:667,9
DA:668,9
DA:669,1
DA:671,10
DA:672,12
DA:675,10
DA:676,10
DA:677,10
DA:697,10
DA:698,10
DA:699,10
DA:700,10
DA:701,10
DA:702,10
DA:703,9
DA:704,9
DA:706,9
DA:707,4
DA:708,1
DA:709,3
DA:710,1
DA:713,13
DA:714,13
DA:715,13
DA:716,13
DA:717,13
DA:718,5
DA:719,8
DA:721,12
DA:722,13
DA:723,13
DA:724,9
DA:728,9
DA:729,5
DA:730,4
DA:732,4
DA:733,10
DA:738,18
DA:739,18
DA:740,18
DA:741,18
DA:742,18
DA:743,18
DA:752,4
DA:753,4
DA:754,3
DA:755,1
DA:756,2
DA:757,2
DA:758,4
DA:759,2
DA:760,4
DA:767,1
DA:768,1
DA:769,1
DA:770,0
DA:771,1
DA:772,1
DA:773,1
DA:774,1
DA:775,1
DA:782,1
DA:783,1
DA:784,1
DA:785,0
DA:786,1
DA:787,1
DA:788,1
DA:789,1
DA:790,1
DA:797,1
DA:798,1
DA:799,1
DA:800,0
DA:801,1
DA:802,1
DA:803,1
DA:804,1
DA:805,1
DA:809,76
DA:810,76
DA:811,76
DA:812,76
DA:813,76
DA:814,76
DA:815,76
DA:822,9
DA:823,9
DA:824,9
DA:826,15
DA:827,15
DA:828,13
DA:829,2
DA:833,9
DA:834,7
DA:836,2
DA:837,2
DA:838,2
DA:839,2
DA:840,2
DA:841,2
DA:843,9
DA:851,79
DA:852,79
DA:853,79
DA:854,79
DA:855,79
DA:857,29
DA:858,29
DA:859,29
DA:862,24
DA:863,23
DA:864,1
DA:867,23
DA:869,46
DA:872,23
DA:873,23
DA:874,23
DA:875,2
DA:877,0
DA:878,23
DA:882,23
DA:883,23
DA:884,0
DA:885,0
DA:886,0
DA:890,23
DA:891,23
DA:892,0
DA:893,0
DA:894,0
DA:902,23
DA:905,23
DA:906,23
DA:907,2
DA:909,0
DA:910,23
DA:912,23
DA:913,23
DA:914,22
DA:915,22
DA:916,22
DA:917,23
DA:919,23
DA:920,1
DA:922,0
DA:924,22
DA:929,23
DA:930,23
DA:932,23
DA:933,23
DA:934,23
DA:935,23
DA:936,23
DA:937,23
DA:938,23
DA:939,23
DA:943,4
DA:946,1
DA:947,1
DA:948,1
DA:949,1
DA:950,1
DA:951,1
DA:952,1
DA:956,76
DA:957,76
DA:958,76
DA:963,0
DA:964,0
DA:965,0
DA:966,0
DA:978,89
DA:979,89
DA:980,89
DA:981,89
DA:982,89
DA:983,89
DA:984,89
DA:985,89
DA:986,89
DA:988,45
DA:989,45
DA:990,45
DA:993,1
DA:994,1
DA:995,1
DA:996,1
DA:997,1
DA:998,1
DA:999,1
DA:1001,1
DA:1002,1
DA:1003,1
DA:1004,1
DA:1005,1
DA:1008,1
DA:1009,1
DA:1010,1
DA:1011,1
DA:1012,1
DA:1014,1
DA:1015,1
DA:1016,1
DA:1018,1
DA:1019,1
DA:1020,1
DA:1023,1
DA:1024,1
DA:1025,1
DA:1026,1
DA:1027,1
DA:1028,1
DA:1030,1
DA:1031,1
DA:1032,1
DA:1033,1
DA:1034,1
DA:1036,1
DA:1037,1
DA:1038,1
DA:1040,1
DA:1041,1
DA:1042,1
DA:1043,1
DA:1046,1
DA:1047,1
DA:1048,1
DA:1049,1
DA:1050,1
DA:1051,1
DA:1052,1
DA:1054,1
DA:1056,1
DA:1057,1
DA:1058,1
DA:1059,1
DA:1060,1
DA:1061,1
DA:1062,1
DA:1063,1
DA:1064,1
DA:1065,1
DA:1067,1
DA:1068,1
DA:1069,1
DA:1070,1
DA:1072,1
DA:1073,1
DA:1075,1
DA:1078,1
DA:1079,1
DA:1080,1
DA:1081,1
DA:1084,1
DA:1085,1
DA:1086,1
DA:1087,1
DA:1088,1
DA:1089,1
DA:1091,1
DA:1092,1
DA:1093,1
DA:1094,1
DA:1095,1
DA:1098,1
DA:1099,1
DA:1100,1
DA:1101,1
DA:1102,1
DA:1103,1
DA:1104,1
DA:1105,1
DA:1106,1
DA:1107,1
DA:1109,1
DA:1110,1
DA:1111,1
DA:1112,1
DA:1114,1
DA:1116,1
DA:1117,1
DA:1119,1
DA:1120,1
DA:1123,1
DA:1124,1
DA:1125,1
DA:1126,1
DA:1127,1
DA:1130,1
DA:1131,1
DA:1132,1
DA:1133,1
DA:1135,1
DA:1136,1
DA:1139,1
DA:1140,1
DA:1141,1
DA:1142,1
DA:1143,1
DA:1144,1
DA:1145,1
DA:1147,1
DA:1148,1
DA:1149,1
DA:1151,1
DA:1152,1
DA:1153,1
DA:1154,1
DA:1157,1
DA:1158,1
DA:1159,1
DA:1160,1
DA:1162,1
DA:1163,1
DA:1164,1
DA:1167,1
DA:1168,1
DA:1169,1
DA:1170,1
DA:1172,1
DA:1173,1
DA:1174,1
DA:1175,1
DA:1178,1
DA:1179,1
DA:1180,1
DA:1181,1
DA:1182,1
DA:1183,1
DA:1185,1
DA:1186,1
DA:1187,1
DA:1188,1
DA:1189,1
DA:1191,1
DA:1192,1
DA:1193,1
DA:1195,1
DA:1196,1
DA:1197,1
DA:1198,1
DA:1199,1
DA:1200,1
DA:1203,1
DA:1204,1
DA:1205,1
DA:1206,1
DA:1207,1
DA:1208,1
DA:1210,1
DA:1211,1
DA:1212,1
DA:1213,1
DA:1214,1
DA:1216,1
DA:1217,1
DA:1218,1
DA:1220,1
DA:1221,1
DA:1222,1
DA:1223,1
DA:1224,1
DA:1225,1
DA:1228,1
DA:1253,1
DA:1254,1
DA:1255,1
DA:1256,1
DA:1257,1
DA:1258,1
DA:1259,1
DA:1260,1
DA:1261,1
DA:1262,1
DA:1264,1
DA:1265,1
DA:1266,1
DA:1268,1
DA:1270,1
DA:1272,1
DA:1273,1
DA:1274,1
DA:1275,1
DA:1278,1
DA:1279,1
DA:1280,1
DA:1281,1
DA:1282,1
DA:1283,1
DA:1284,1
DA:1285,1
DA:1286,1
DA:1288,1
DA:1289,1
DA:1290,1
DA:1292,1
DA:1293,1
DA:1294,1
DA:1295,1
DA:1296,1
DA:1299,1
DA:1301,1
DA:1302,1
DA:1303,1
DA:1305,1
DA:1306,1
DA:1307,1
DA:1308,1
DA:1309,1
DA:1310,1
DA:1311,1
DA:1312,1
DA:1313,1
DA:1314,1
DA:1316,1
DA:1317,1
DA:1318,1
DA:1319,1
DA:1321,1
DA:1322,1
DA:1324,1
DA:1325,1
DA:1328,1
DA:1329,1
DA:1330,1
DA:1331,1
DA:1333,1
DA:1334,1
DA:1335,1
DA:1337,1
DA:1339,1
DA:1340,1
DA:1341,1
DA:1342,1
DA:1343,1
DA:1344,1
DA:1349,1
DA:1350,1
DA:1351,1
DA:1352,1
DA:1354,1
DA:1355,1
DA:1356,1
DA:1357,1
DA:1358,1
DA:1361,1
DA:1362,1
DA:1363,1
DA:1364,1
DA:1365,1
DA:1366,1
DA:1367,1
DA:1368,1
DA:1369,1
DA:1370,1
DA:1373,1
DA:1374,1
DA:1375,1
DA:1376,1
DA:1378,1
DA:1379,1
DA:1382,1
DA:1383,1
DA:1387,1
DA:1388,1
DA:1389,1
DA:1390,1
DA:1391,1
DA:1394,1
DA:1395,1
DA:1396,1
DA:1397,1
DA:1399,1
DA:1400,1
DA:1401,1
DA:1402,1
DA:1403,1
DA:1406,1
DA:1407,1
DA:1408,1
DA:1409,1
DA:1410,1
DA:1411,1
DA:1412,1
DA:1413,1
DA:1414,1
DA:1415,1
DA:1417,1
DA:1418,1
DA:1419,1
DA:1421,1
DA:1422,1
DA:1423,1
DA:1425,1
DA:1427,1
DA:1428,1
DA:1429,1
DA:1431,1
DA:1432,1
DA:1435,3
DA:1436,2
DA:1437,1
DA:1438,1
DA:1441,1
DA:1442,1
DA:1443,1
DA:1444,1
DA:1446,1
DA:1447,1
DA:1448,1
DA:1449,1
DA:1450,1
DA:1453,1
DA:1454,1
DA:1455,1
DA:1456,1
DA:1457,1
DA:1458,1
DA:1459,1
DA:1460,1
DA:1461,1
DA:1462,1
DA:1464,1
DA:1465,1
DA:1466,1
DA:1468,1
DA:1469,1
DA:1470,1
DA:1472,1
DA:1474,1
DA:1475,1
DA:1476,1
DA:1478,1
DA:1480,1
DA:1481,1
DA:1482,1
DA:1485,1
DA:1486,1
DA:1487,1
DA:1490,1
DA:1492,1
DA:1493,1
DA:1494,1
DA:1495,1
DA:1496,1
DA:1499,1
DA:1500,1
DA:1501,1
DA:1502,1
DA:1503,1
DA:1506,1
DA:1507,1
DA:1508,1
DA:1510,1
DA:1511,1
DA:1512,1
DA:1513,1
DA:1516,1
DA:1517,1
DA:1518,1
DA:1519,1
DA:1521,1
DA:1522,1
DA:1523,1
DA:1524,1
DA:1525,1
DA:1528,1
DA:1529,1
DA:1530,1
DA:1531,1
DA:1532,1
DA:1533,1
DA:1534,1
DA:1535,1
DA:1536,1
DA:1537,1
DA:1539,1
DA:1540,1
DA:1541,1
DA:1542,1
DA:1544,1
DA:1545,1
DA:1547,1
DA:1548,1
DA:1549,1
DA:1551,1
DA:1552,1
DA:1553,1
DA:1556,1
DA:1557,1
DA:1558,1
DA:1559,1
DA:1560,1
DA:1561,1
DA:1562,1
DA:1563,1
DA:1564,1
DA:1565,1
DA:1566,1
DA:1568,1
DA:1569,1
DA:1570,1
DA:1572,1
DA:1573,1
DA:1574,1
DA:1579,1
DA:1580,1
DA:1581,1
DA:1582,1
DA:1583,1
DA:1584,1
DA:1585,1
DA:1586,1
DA:1587,1
DA:1588,1
DA:1589,1
DA:1591,1
DA:1592,1
DA:1593,1
DA:1595,1
DA:1596,1
DA:1597,1
DA:1600,1
DA:1601,1
DA:1602,1
DA:1603,1
DA:1604,1
DA:1605,1
DA:1606,1
DA:1607,1
DA:1608,1
DA:1609,1
DA:1610,1
DA:1612,1
DA:1613,1
DA:1614,1
DA:1616,1
DA:1617,1
DA:1619,1
DA:1620,1
DA:1621,1
DA:1624,1
DA:1625,1
DA:1626,1
DA:1628,1
DA:1629,1
DA:1630,1
DA:1632,1
DA:1633,1
DA:1634,1
DA:1636,1
DA:1638,1
DA:1639,1
DA:1640,1
DA:1641,1
DA:1642,1
DA:1643,1
DA:1644,1
DA:1645,1
DA:1646,1
DA:1647,1
DA:1649,1
DA:1650,1
DA:1651,1
DA:1653,1
DA:1654,1
DA:1655,1
DA:1658,1
DA:1659,1
DA:1660,1
DA:1661,1
DA:1662,1
DA:1663,1
DA:1664,1
DA:1665,1
DA:1666,1
DA:1667,1
DA:1668,1
DA:1670,1
DA:1671,1
DA:1672,1
DA:1674,1
DA:1675,1
DA:1676,1
DA:1679,1
DA:1680,1
DA:1681,1
DA:1682,1
DA:1684,1
DA:1685,1
DA:1686,1
DA:1688,1
DA:1689,1
DA:1690,1
DA:1692,1
DA:1694,1
DA:1695,1
DA:1696,1
DA:1697,1
DA:1698,1
DA:1699,1
DA:1700,1
DA:1701,1
DA:1702,1
DA:1703,1
DA:1705,1
DA:1706,1
DA:1707,1
DA:1709,1
DA:1710,1
DA:1711,1
DA:1712,1
DA:1715,1
DA:1716,1
DA:1717,1
DA:1719,1
DA:1720,1
DA:1721,1
DA:1723,1
DA:1724,1
DA:1725,1
DA:1727,1
DA:1729,1
DA:1730,1
DA:1731,1
DA:1732,1
DA:1733,1
DA:1734,1
DA:1735,1
DA:1736,1
DA:1737,1
DA:1738,1
DA:1740,1
DA:1741,1
DA:1742,1
DA:1745,1
DA:1746,1
DA:1747,1
DA:1750,1
DA:1754,1
DA:1755,1
DA:1756,1
DA:1757,1
DA:1758,1
DA:1759,1
DA:1760,1
DA:1761,1
DA:1762,1
DA:1763,1
DA:1764,1
DA:1765,1
DA:1766,1
DA:1767,1
DA:1768,1
DA:1769,1
DA:1770,1
DA:1771,1
DA:1773,1
DA:1774,1
DA:1775,1
DA:1778,1
DA:1779,1
DA:1780,1
DA:1784,28
DA:1786,28
DA:1787,28
DA:1788,28
DA:1789,28
DA:1790,28
DA:1792,28
DA:1794,28
DA:1795,28
DA:1797,14
DA:1798,14
DA:1799,14
DA:1800,14
DA:1801,14
DA:1802,14
DA:1803,14
DA:1804,14
DA:1805,14
DA:1806,14
DA:1807,14
DA:1808,14
DA:1809,14
DA:1810,14
DA:1813,1
DA:1814,1
DA:1815,1
DA:1817,1
DA:1818,1
DA:1819,1
DA:1821,1
DA:1822,1
DA:1823,1
DA:1824,1
DA:1825,1
DA:1826,1
DA:1827,1
DA:1830,1
DA:1831,1
DA:1832,1
DA:1834,1
DA:1835,1
DA:1836,1
DA:1839,1
DA:1840,1
DA:1843,1
DA:1844,1
DA:1845,1
DA:1846,1
DA:1849,1
DA:1850,1
DA:1851,1
DA:1853,1
DA:1854,1
DA:1855,1
DA:1858,1
DA:1859,1
DA:1860,1
DA:1861,1
DA:1864,1
DA:1865,1
DA:1866,1
DA:1867,1
DA:1868,1
DA:1871,1
DA:1872,1
DA:1873,1
DA:1875,1
DA:1876,1
DA:1877,1
DA:1880,1
DA:1881,1
DA:1882,1
DA:1883,1
DA:1886,1
DA:1887,1
DA:1888,1
DA:1889,1
DA:1890,1
DA:1893,1
DA:1894,1
DA:1895,1
DA:1896,1
DA:1897,1
DA:1898,1
DA:1899,1
DA:1901,1
DA:1902,1
DA:1903,1
DA:1904,1
DA:1905,1
DA:1906,1
DA:1908,1
DA:1909,1
DA:1910,1
DA:1911,1
DA:1913,1
DA:1914,1
DA:1915,1
DA:1916,1
DA:1917,1
DA:1918,1
DA:1922,1
DA:1925,1
DA:1926,1
DA:1927,1
DA:1928,1
DA:1930,1
DA:1931,1
DA:1934,1
DA:1936,1
DA:1937,1
DA:1939,1
DA:1940,1
DA:1941,1
DA:1943,1
DA:1944,1
DA:1945,1
DA:1947,1
DA:1949,1
DA:1950,1
DA:1951,1
DA:1955,1
DA:1956,1
DA:1957,1
DA:1958,1
DA:1962,1
DA:1963,1
DA:1964,1
DA:1965,1
DA:1969,1
DA:1970,1
DA:1971,1
DA:1972,1
DA:1973,1
DA:1974,1
DA:1977,1
DA:1978,1
DA:1979,1
DA:1982,1
DA:1983,1
DA:1984,1
DA:1985,1
DA:1986,1
DA:1989,1
DA:1991,1
DA:1992,1
DA:1994,1
DA:1995,1
DA:1996,1
DA:1998,1
DA:1999,1
DA:2000,1
DA:2002,1
DA:2004,1
DA:2005,1
DA:2006,1
DA:2009,1
DA:2010,1
DA:2011,1
DA:2012,1
DA:2016,1
DA:2017,1
DA:2018,1
DA:2019,1
DA:2020,1
DA:2025,1
DA:2026,1
DA:2027,1
DA:2028,1
DA:2034,1
DA:2035,1
DA:2036,1
DA:2037,1
DA:2038,1
DA:2039,1
DA:2044,1
DA:2045,1
DA:2046,1
DA:2050,1
DA:2051,1
DA:2052,1
DA:2053,1
DA:2054,1
DA:2055,0
DA:2063,1
DA:2064,1
DA:2065,1
DA:2066,1
DA:2069,1
DA:2070,1
DA:2071,1
DA:2072,1
DA:2074,1
DA:2075,1
DA:2076,1
DA:2077,1
DA:2078,1
DA:2081,1
DA:2082,1
DA:2083,1
DA:2086,1
DA:2087,1
DA:2088,1
DA:2090,1
DA:2091,1
DA:2092,1
DA:2094,1
DA:2095,1
DA:2096,1
DA:2098,1
DA:2100,1
DA:2101,1
DA:2102,1
DA:2103,1
DA:2104,1
DA:2105,1
DA:2106,1
DA:2107,1
DA:2108,1
DA:2109,1
DA:2111,1
DA:2112,1
DA:2113,1
DA:2115,1
DA:2116,1
DA:2117,1
DA:2118,1
DA:2123,1
DA:2124,1
DA:2125,1
DA:2127,1
DA:2128,1
DA:2129,1
DA:2131,1
DA:2133,1
DA:2134,1
DA:2136,1
DA:2137,1
DA:2138,1
DA:2141,1
DA:2142,1
DA:2143,1
DA:2145,1
DA:2146,1
DA:2147,1
DA:2149,1
DA:2151,1
DA:2152,1
DA:2154,1
DA:2155,1
DA:2156,1
DA:2159,1
DA:2162,1
DA:2165,1
DA:2166,1
DA:2168,1
DA:2170,1
DA:2171,1
DA:2173,1
DA:2174,1
DA:2175,1
DA:2177,1
DA:2178,1
DA:2179,1
DA:2180,1
DA:2182,1
DA:2183,1
DA:2184,1
DA:2186,1
DA:2187,1
DA:2188,1
DA:2191,1
DA:2194,1
DA:2195,1
DA:2197,1
DA:2198,1
DA:2199,1
DA:2201,1
DA:2203,1
DA:2204,1
DA:2205,1
DA:2207,1
DA:2208,1
DA:2209,1
DA:2212,1
DA:2213,1
DA:2214,1
DA:2215,1
DA:2217,1
DA:2218,1
DA:2219,1
DA:2220,1
DA:2223,1
DA:2224,1
DA:2225,1
DA:2226,1
DA:2228,1
DA:2229,1
DA:2230,1
DA:2231,1
DA:2234,1
DA:2237,1
DA:2238,1
DA:2239,1
DA:2241,1
DA:2242,1
DA:2243,1
DA:2244,1
DA:2245,1
DA:2246,1
DA:2247,1
DA:2250,1
DA:2251,1
DA:2252,1
DA:2253,1
DA:2255,1
DA:2256,1
DA:2257,1
DA:2258,1
DA:2262,9
DA:2263,9
DA:2264,9
DA:2265,9
DA:2267,9
DA:2268,9
DA:2269,9
DA:2271,9
DA:2272,9
DA:2275,1
DA:2276,1
DA:2277,1
DA:2278,1
DA:2279,1
DA:2280,1
DA:2281,1
DA:2283,1
DA:2284,1
DA:2285,1
DA:2286,1
DA:2287,1
DA:2290,1
DA:2291,1
DA:2292,1
DA:2293,1
DA:2294,1
DA:2296,1
DA:2297,1
DA:2298,1
DA:2299,1
DA:2301,1
DA:2303,1
DA:2304,1
DA:2305,1
DA:2307,1
DA:2308,1
DA:2309,1
DA:2312,1
DA:2313,1
DA:2314,1
DA:2315,1
DA:2316,1
DA:2317,1
DA:2319,1
DA:2320,1
DA:2321,1
DA:2322,1
DA:2323,1
DA:2325,1
DA:2326,1
DA:2327,1
DA:2329,1
DA:2330,1
DA:2331,1
DA:2333,1
DA:2334,1
DA:2335,1
DA:2338,1
DA:2339,1
DA:2340,1
DA:2341,1
DA:2343,1
DA:2344,1
DA:2345,1
DA:2348,1
DA:2349,1
DA:2350,1
DA:2351,1
DA:2352,1
DA:2353,1
DA:2355,1
DA:2356,1
DA:2357,1
DA:2358,1
DA:2359,1
DA:2361,1
DA:2362,1
DA:2363,1
DA:2364,1
DA:2365,1
DA:2366,1
DA:2369,1
DA:2371,1
DA:2372,1
DA:2373,1
DA:2375,1
DA:2376,1
DA:2377,1
DA:2378,1
DA:2381,1
DA:2382,1
DA:2383,1
DA:2384,1
DA:2386,1
DA:2387,1
DA:2388,1
DA:2391,1
DA:2392,1
DA:2395,1
DA:2396,1
DA:2397,1
DA:2398,1
DA:2399,1
DA:2400,1
DA:2401,1
DA:2402,1
DA:2404,1
DA:2405,1
DA:2406,1
DA:2407,1
DA:2408,1
DA:2411,1
DA:2412,1
DA:2413,1
DA:2414,1
DA:2415,1
DA:2416,1
DA:2418,1
DA:2419,1
DA:2420,1
DA:2421,1
DA:2423,1
DA:2425,1
DA:2426,1
DA:2427,1
DA:2429,1
DA:2430,1
DA:2433,1
DA:2434,1
DA:2435,1
DA:2436,1
DA:2437,1
DA:2438,1
DA:2439,1
DA:2441,1
DA:2442,1
DA:2443,1
DA:2444,1
DA:2445,1
DA:2446,1
DA:2448,1
DA:2449,1
DA:2450,1
DA:2452,1
DA:2453,1
DA:2454,1
DA:2456,1
DA:2457,1
DA:2460,1
DA:2463,1
DA:2464,1
DA:2465,1
DA:2466,1
DA:2467,1
DA:2468,1
DA:2470,1
DA:2471,1
DA:2472,1
DA:2473,1
DA:2474,1
DA:2475,1
DA:2477,1
DA:2478,1
DA:2479,1
DA:2481,1
DA:2482,1
DA:2483,1
DA:2485,1
DA:2486,1
DA:2487,1
DA:2488,1
DA:2489,1
DA:2492,1
DA:2493,1
DA:2494,1
DA:2495,1
DA:2496,1
DA:2497,1
DA:2498,1
DA:2500,1
DA:2501,1
DA:2502,1
DA:2503,1
DA:2504,1
DA:2505,1
DA:2507,1
DA:2508,1
DA:2509,1
DA:2511,1
DA:2512,1
DA:2513,1
DA:2515,1
DA:2516,1
DA:2519,1
DA:2520,1
DA:2521,1
DA:2522,1
DA:2524,1
DA:2525,1
DA:2526,1
DA:2527,1
DA:2528,1
DA:2529,1
DA:2532,1
DA:2533,1
DA:2534,1
DA:2536,1
DA:2537,1
DA:2539,1
DA:2540,1
DA:2541,1
DA:2543,1
DA:2544,1
DA:2545,1
DA:2547,1
DA:2549,1
DA:2550,1
DA:2551,1
DA:2552,1
DA:2553,1
DA:2554,1
DA:2555,1
DA:2556,1
DA:2557,1
DA:2558,1
DA:2560,1
DA:2561,1
DA:2562,1
DA:2564,1
DA:2565,1
DA:2566,1
DA:2567,1
DA:2570,1
DA:2572,1
DA:2573,1
DA:2575,1
DA:2576,1
DA:2577,1
DA:2578,1
DA:2581,1
DA:2582,1
DA:2583,1
DA:2585,1
DA:2586,1
DA:2587,1
DA:2589,1
DA:2591,1
DA:2592,1
DA:2593,1
DA:2594,1
DA:2595,1
DA:2596,1
DA:2597,1
DA:2598,1
DA:2599,1
DA:2600,1
DA:2602,1
DA:2603,1
DA:2604,1
DA:2607,1
DA:2608,1
DA:2609,1
DA:2612,1
DA:2625,1
DA:2642,1
DA:2643,1
DA:2649,1
DA:2650,2
DA:2656,2
DA:2657,0
DA:2663,0
DA:2664,0
DA:2670,0
DA:2675,0
DA:2681,0
DA:2685,0
DA:2687,0
DA:2692,0
DA:2694,0
DA:2698,0
DA:2700,0
DA:2705,0
DA:2707,0
DA:2713,0
DA:2715,0
DA:2721,0
DA:2723,0
DA:2724,0
DA:2726,0
DA:2732,0
DA:2734,0
DA:2735,0
DA:2736,0
DA:2737,0
DA:2740,1
DA:2742,1
DA:2743,1
DA:2744,1
DA:2745,1
DA:2748,1
DA:2749,1
DA:2750,1
DA:2752,1
DA:2753,1
DA:2754,1
DA:2756,1
DA:2758,1
DA:2759,1
DA:2760,1
DA:2761,1
DA:2763,1
DA:2764,1
DA:2765,1
DA:2767,1
DA:2768,1
DA:2770,1
DA:2771,1
DA:2772,1
DA:2773,1
DA:2774,1
DA:2775,1
DA:2776,1
DA:2777,1
DA:2778,1
DA:2779,1
DA:2780,1
DA:2781,1
DA:2788,3
DA:2789,3
DA:2790,3
DA:2791,3
DA:2792,3
DA:2793,3
DA:2794,3
DA:2795,3
DA:2796,3
DA:2797,3
DA:2798,3
DA:2799,3
DA:2800,3
DA:2801,3
DA:2802,3
DA:2803,3
DA:2804,3
DA:2805,3
DA:2806,3
DA:2807,3
DA:2808,3
DA:2811,1
DA:2812,1
DA:2813,1
DA:2815,1
DA:2816,1
DA:2817,1
DA:2820,1
DA:2821,1
DA:2822,1
DA:2823,1
DA:2825,1
DA:2826,1
DA:2827,1
DA:2828,1
DA:2829,1
DA:2832,1
DA:2833,1
DA:2834,1
DA:2836,1
DA:2837,1
DA:2838,1
DA:2841,1
DA:2842,1
DA:2843,1
DA:2844,1
DA:2846,1
DA:2847,1
DA:2848,1
DA:2849,1
DA:2852,1
DA:2853,1
DA:2854,1
DA:2856,1
DA:2857,1
DA:2858,1
DA:2859,1
DA:2861,1
DA:2863,1
DA:2864,1
DA:2865,1
DA:2867,1
DA:2868,1
DA:2869,1
DA:2870,1
DA:2872,1
DA:2873,1
DA:2875,1
DA:2876,1
DA:2877,1
DA:2879,1
DA:2880,1
DA:2881,1
DA:2882,1
DA:2885,1
DA:2886,1
DA:2887,1
DA:2889,1
DA:2890,1
DA:2891,1
DA:2893,1
DA:2894,1
DA:2895,1
DA:2896,1
DA:2898,1
DA:2899,1
DA:2901,1
DA:2902,1
DA:2903,1
DA:2905,1
DA:2906,1
DA:2907,1
DA:2908,1
DA:2911,1
DA:2912,1
DA:2913,1
DA:2915,1
DA:2916,1
DA:2917,1
DA:2919,1
DA:2920,1
DA:2921,1
DA:2922,1
DA:2923,1
DA:2924,1
DA:2925,1
DA:2927,1
DA:2928,1
DA:2929,1
DA:2930,1
DA:2931,1
DA:2934,1
DA:2935,1
DA:2936,1
DA:2937,1
DA:2939,1
DA:2940,1
DA:2941,1
DA:2942,1
DA:2943,1
DA:2944,1
DA:2947,1
DA:2948,1
DA:2949,1
DA:2951,1
DA:2952,1
DA:2953,1
DA:2954,1
DA:2955,1
DA:2956,1
DA:2957,1
DA:2958,1
DA:2960,1
DA:2961,1
DA:2962,1
DA:2964,1
DA:2965,1
DA:2966,1
DA:2968,1
DA:2970,1
DA:2971,1
DA:2972,1
DA:2974,1
DA:2975,1
DA:2976,1
DA:2977,1
DA:2979,1
DA:2980,1
DA:2981,1
DA:2982,1
DA:2985,1
DA:2986,1
DA:2987,1
DA:2989,1
DA:2990,1
DA:2991,1
DA:2992,1
DA:2993,1
DA:2994,1
DA:2995,1
DA:2996,1
DA:2998,1
DA:2999,1
DA:3000,1
DA:3002,1
DA:3003,1
DA:3004,1
DA:3006,1
DA:3008,1
DA:3009,1
DA:3010,1
DA:3012,1
DA:3013,1
DA:3014,1
DA:3015,1
DA:3017,1
DA:3018,1
DA:3019,1
DA:3020,1
DA:3023,1
DA:3036,1
DA:3053,1
DA:3054,1
DA:3060,1
DA:3061,0
DA:3067,0
DA:3068,1
DA:3074,1
DA:3075,0
DA:3081,0
DA:3086,2
DA:3092,2
DA:3096,0
DA:3098,0
DA:3103,0
DA:3105,0
DA:3109,0
DA:3111,0
DA:3116,0
DA:3118,0
DA:3124,0
DA:3126,0
DA:3132,0
DA:3134,0
DA:3135,0
DA:3137,0
DA:3143,0
DA:3145,0
DA:3146,0
DA:3147,0
DA:3148,0
DA:3151,1
DA:3152,1
DA:3153,1
DA:3154,1
DA:3155,1
DA:3158,1
DA:3159,1
DA:3160,1
DA:3162,1
DA:3163,1
DA:3164,1
DA:3166,1
DA:3168,1
DA:3169,1
DA:3170,1
DA:3171,1
DA:3173,1
DA:3174,1
DA:3175,1
DA:3177,1
DA:3178,1
DA:3179,1
DA:3181,1
DA:3182,1
DA:3183,1
DA:3184,1
DA:3185,1
DA:3186,1
DA:3187,1
DA:3188,1
DA:3189,1
DA:3190,1
DA:3191,1
DA:3192,1
DA:3193,1
DA:3198,1
DA:3201,1
DA:3202,1
DA:3203,1
DA:3204,1
DA:3205,1
DA:3206,1
DA:3207,1
DA:3208,1
DA:3211,1
DA:3213,1
DA:3214,1
DA:3215,1
DA:3216,1
DA:3217,1
DA:3218,1
DA:3219,1
DA:3220,1
DA:3221,1
DA:3222,1
DA:3223,1
DA:3224,1
DA:3225,1
DA:3226,1
DA:3227,1
DA:3228,1
DA:3229,1
DA:3230,1
DA:3231,1
DA:3232,1
DA:3233,1
DA:3234,1
DA:3235,1
DA:3236,1
DA:3237,1
DA:3238,1
DA:3239,1
DA:3240,1
DA:3241,1
DA:3242,1
DA:3243,1
DA:3244,1
DA:3246,1
DA:3247,1
DA:3248,1
DA:3249,1
DA:3252,1
DA:3255,1
DA:3256,1
DA:3259,1
DA:3260,1
DA:3263,1
DA:3264,1
DA:3265,1
DA:3266,1
DA:3269,1
DA:3270,1
DA:3271,1
DA:3274,1
DA:3277,1
DA:3278,1
DA:3279,1
DA:3280,1
DA:3281,1
DA:3282,1
DA:3284,1
DA:3285,1
DA:3286,1
DA:3287,1
DA:3288,1
DA:3292,1
DA:3295,1
DA:3296,1
DA:3298,1
DA:3300,1
DA:3301,1
DA:3302,1
DA:3303,1
DA:3304,1
DA:3305,1
DA:3306,1
DA:3308,1
DA:3309,1
DA:3310,1
DA:3311,1
DA:3314,1
DA:3315,1
DA:3316,1
DA:3318,1
DA:3319,1
DA:3320,1
DA:3322,1
DA:3324,1
DA:3325,1
DA:3326,1
DA:3329,1
DA:3330,1
DA:3333,1
DA:3334,1
DA:3335,1
DA:3336,1
DA:3339,1
DA:3340,1
DA:3341,1
DA:3342,1
DA:3343,1
DA:3345,1
DA:3346,1
DA:3347,1
DA:3348,1
DA:3349,1
DA:3350,1
DA:3353,1
DA:3355,1
DA:3356,1
DA:3357,1
DA:3358,1
DA:3359,1
DA:3362,1
DA:3365,1
DA:3366,1
DA:3368,1
DA:3370,1
DA:3371,1
DA:3372,1
DA:3373,1
DA:3374,1
DA:3375,1
DA:3376,1
DA:3378,1
DA:3379,1
DA:3381,1
DA:3382,1
DA:3383,1
DA:3385,1
DA:3386,1
DA:3387,1
DA:3389,1
DA:3391,1
DA:3392,1
DA:3393,1
DA:3396,1
DA:3397,1
DA:3400,1
DA:3401,1
DA:3402,1
DA:3405,1
DA:3406,1
DA:3409,1
DA:3410,1
DA:3411,1
DA:3414,1
DA:3417,1
DA:3418,1
DA:3419,1
DA:3420,1
DA:3421,1
DA:3422,1
DA:3424,1
DA:3425,1
DA:3426,1
DA:3427,1
DA:3428,1
DA:3431,1
DA:3432,1
DA:3433,1
DA:3434,1
DA:3435,1
DA:3439,1
DA:3440,1
DA:3441,1
DA:3442,1
DA:3443,1
DA:3444,1
DA:3445,1
DA:3446,1
DA:3447,1
DA:3448,1
DA:3450,1
DA:3451,1
DA:3452,1
DA:3454,1
DA:3455,1
DA:3456,1
DA:3458,1
DA:3459,1
DA:3460,1
DA:3461,1
DA:3462,1
DA:3463,1
DA:3465,1
DA:3466,1
DA:3467,1
DA:3470,1
DA:3471,1
DA:3472,1
DA:3473,1
DA:3474,1
DA:3475,1
DA:3476,1
DA:3477,1
DA:3478,1
DA:3479,1
DA:3481,1
DA:3482,1
DA:3483,1
DA:3485,1
DA:3486,1
DA:3487,1
DA:3489,1
DA:3490,1
DA:3491,1
DA:3492,1
DA:3493,1
DA:3494,1
DA:3496,1
DA:3497,1
DA:3500,1
DA:3501,1
DA:3502,1
DA:3503,1
DA:3504,1
DA:3505,1
DA:3506,1
DA:3507,1
DA:3508,1
DA:3509,1
DA:3511,1
DA:3512,1
DA:3513,1
DA:3515,1
DA:3516,1
DA:3517,1
DA:3519,1
DA:3520,1
DA:3521,1
DA:3522,1
DA:3523,1
DA:3525,1
DA:3526,1
DA:3528,1
DA:3529,1
DA:3530,1
DA:3535,1
DA:3538,1
DA:3539,1
DA:3540,1
DA:3542,1
DA:3543,1
DA:3544,1
DA:3545,1
DA:3546,1
DA:3549,1
DA:3550,1
DA:3551,1
DA:3552,1
DA:3553,8
DA:3554,1
DA:3556,1
DA:3557,1
DA:3558,1
DA:3559,1
DA:3560,1
DA:3561,1
DA:3562,1
DA:3564,1
DA:3568,1
DA:3569,1
DA:3570,1
DA:3571,1
DA:3572,1
DA:3573,1
DA:3574,1
DA:3575,1
DA:3578,1
DA:3580,1
DA:3581,1
DA:3583,1
DA:3584,1
DA:3585,1
DA:3586,1
DA:3587,1
DA:3588,1
DA:3590,1
DA:3591,1
DA:3592,1
DA:3594,1
DA:3595,1
DA:3596,1
DA:3598,1
DA:3600,1
DA:3601,1
DA:3602,1
DA:3604,1
DA:3607,1
DA:3608,1
DA:3609,1
DA:3610,1
DA:3611,1
DA:3612,1
DA:3613,1
DA:3618,1
DA:3621,1
DA:3622,1
DA:3623,1
DA:3624,1
DA:3625,1
DA:3627,1
DA:3628,1
DA:3629,1
DA:3630,1
DA:3631,1
DA:3634,1
DA:3635,1
DA:3636,1
DA:3637,1
DA:3638,1
DA:3639,1
DA:3640,1
DA:3641,1
DA:3642,1
DA:3643,1
DA:3645,1
DA:3646,1
DA:3647,1
DA:3649,1
DA:3650,1
DA:3651,1
DA:3653,1
DA:3655,1
DA:3656,1
DA:3657,1
DA:3660,1
DA:3661,1
DA:3664,1
DA:3665,1
DA:3666,1
DA:3669,1
DA:3672,1
DA:3673,1
DA:3674,1
DA:3675,1
DA:3676,1
DA:3678,1
DA:3679,1
DA:3680,1
DA:3681,1
DA:3682,1
DA:3685,1
DA:3686,1
DA:3687,1
DA:3688,1
DA:3689,1
DA:3690,1
DA:3691,1
DA:3692,1
DA:3693,1
DA:3694,1
DA:3696,1
DA:3697,1
DA:3698,1
DA:3699,1
DA:3702,1
DA:3703,1
DA:3704,1
DA:3706,1
DA:3707,1
DA:3708,1
DA:3710,1
DA:3712,1
DA:3713,1
DA:3714,1
DA:3716,1
DA:3718,1
DA:3719,1
DA:3720,1
DA:3723,1
DA:3726,1
DA:3727,1
DA:3728,1
DA:3729,1
DA:3730,1
DA:3731,1
DA:3733,1
DA:3734,1
DA:3735,1
DA:3736,1
DA:3737,1
DA:3740,1
DA:3741,1
DA:3742,1
DA:3743,1
DA:3744,1
DA:3747,1
DA:3748,1
DA:3749,1
DA:3750,1
DA:3751,1
DA:3752,1
DA:3753,1
DA:3754,1
DA:3755,1
DA:3756,1
DA:3758,1
DA:3759,1
DA:3760,1
DA:3761,1
DA:3764,1
DA:3765,1
DA:3768,1
DA:3769,1
DA:3770,1
BRF:0
BRH:0
LF:2618
LH:2487
end_of_record
SF:/Users/waku/dev/govee/src/scene.rs
FN:59,_RNCNvMNtCsf2i7I5CTk8o_5govee5sceneNtB4_5Scene3new0B6_
FN:180,_RNCNvMs_NtCsf2i7I5CTk8o_5govee5sceneNtB6_13SceneRegistry16with_user_scenes0B8_
FN:141,_RNCNvMs_NtCsf2i7I5CTk8o_5govee5sceneNtB6_13SceneRegistry3get0B8_
FN:147,_RNCNvMs_NtCsf2i7I5CTk8o_5govee5sceneNtB6_13SceneRegistry4list0B8_
FN:79,_RNvMNtCsf2i7I5CTk8o_5govee5sceneNtB2_5Scene10brightness
FN:43,_RNvMNtCsf2i7I5CTk8o_5govee5sceneNtB2_5Scene3new
FN:74,_RNvMNtCsf2i7I5CTk8o_5govee5sceneNtB2_5Scene4name
FN:84,_RNvMNtCsf2i7I5CTk8o_5govee5sceneNtB2_5Scene5color
FN:157,_RNvMs_NtCsf2i7I5CTk8o_5govee5sceneNtB4_13SceneRegistry16with_user_scenes
FN:138,_RNvMs_NtCsf2i7I5CTk8o_5govee5sceneNtB4_13SceneRegistry3get
FN:100,_RNvMs_NtCsf2i7I5CTk8o_5govee5sceneNtB4_13SceneRegistry3new
FN:145,_RNvMs_NtCsf2i7I5CTk8o_5govee5sceneNtB4_13SceneRegistry4list
FN:202,_RNvXs0_NtCsf2i7I5CTk8o_5govee5sceneNtB5_13SceneRegistryNtNtCs85QQFkKrybG_4core7default7Default7default
FN:271,_RNvNtNtCseqgZqxOBWDO_5govee5scene5testss_16reject_temp_zero
FN:240,_RNvNtNtCseqgZqxOBWDO_5govee5scene5testss_17lookup_exact_name
FN:295,_RNvNtNtCseqgZqxOBWDO_5govee5scene5testss_17reject_empty_name
FN:258,_RNvNtNtCseqgZqxOBWDO_5govee5scene5testss_20lookup_unknown_scene
FN:384,_RNvNtNtCseqgZqxOBWDO_5govee5scene5testss_21user_color_temp_scene
FN:289,_RNvNtNtCseqgZqxOBWDO_5govee5scene5testss_22reject_name_with_space
FN:277,_RNvNtNtCseqgZqxOBWDO_5govee5scene5testss_22reject_temp_over_10000
FN:301,_RNvNtNtCseqgZqxOBWDO_5govee5scene5testss_23accept_valid_name_chars
FN:249,_RNvNtNtCseqgZqxOBWDO_5govee5scene5testss_23lookup_case_insensitive
FN:283,_RNvNtNtCseqgZqxOBWDO_5govee5scene5testss_24reject_name_with_newline
FN:265,_RNvNtNtCseqgZqxOBWDO_5govee5scene5testss_26reject_brightness_over_100
FN:366,_RNvNtNtCseqgZqxOBWDO_5govee5scene5testss_28user_scene_overrides_builtin
FN:212,_RNvNtNtCseqgZqxOBWDO_5govee5scene5testss_32builtins_all_present_with_values
FN:308,_RNvNtNtCseqgZqxOBWDO_5govee5scene5testss_38user_scene_loaded_via_with_user_scenes
FN:327,_RNvNtNtCseqgZqxOBWDO_5govee5scene5testss_42user_scene_neither_color_nor_temp_rejected
FN:342,_RNvNtNtCseqgZqxOBWDO_5govee5scene5testss_44user_scene_collision_between_two_user_scenes
FN:402,_RNvNtNtCseqgZqxOBWDO_5govee5scene5testss_47user_scene_case_insensitive_collision_last_wins
FN:79,_RNvMNtCseqgZqxOBWDO_5govee5sceneNtB2_5Scene10brightness
FN:43,_RNvMNtCseqgZqxOBWDO_5govee5sceneNtB2_5Scene3new
FN:74,_RNvMNtCseqgZqxOBWDO_5govee5sceneNtB2_5Scene4name
FN:84,_RNvMNtCseqgZqxOBWDO_5govee5sceneNtB2_5Scene5color
FN:157,_RNvMs_NtCseqgZqxOBWDO_5govee5sceneNtB4_13SceneRegistry16with_user_scenes
FN:138,_RNvMs_NtCseqgZqxOBWDO_5govee5sceneNtB4_13SceneRegistry3get
FN:100,_RNvMs_NtCseqgZqxOBWDO_5govee5sceneNtB4_13SceneRegistry3new
FN:145,_RNvMs_NtCseqgZqxOBWDO_5govee5sceneNtB4_13SceneRegistry4list
FN:202,_RNvXs0_NtCseqgZqxOBWDO_5govee5sceneNtB5_13SceneRegistryNtNtCs85QQFkKrybG_4core7default7Default7default
FN:59,_RNCNvMNtCseqgZqxOBWDO_5govee5sceneNtB4_5Scene3new0B6_
FN:180,_RNCNvMs_NtCseqgZqxOBWDO_5govee5sceneNtB6_13SceneRegistry16with_user_scenes0B8_
FN:141,_RNCNvMs_NtCseqgZqxOBWDO_5govee5sceneNtB6_13SceneRegistry3get0B8_
FN:147,_RNCNvMs_NtCseqgZqxOBWDO_5govee5sceneNtB6_13SceneRegistry4list0B8_
FNDA:0,_RNCNvMNtCsf2i7I5CTk8o_5govee5sceneNtB4_5Scene3new0B6_
FNDA:0,_RNCNvMs_NtCsf2i7I5CTk8o_5govee5sceneNtB6_13SceneRegistry16with_user_scenes0B8_
FNDA:0,_RNCNvMs_NtCsf2i7I5CTk8o_5govee5sceneNtB6_13SceneRegistry3get0B8_
FNDA:0,_RNCNvMs_NtCsf2i7I5CTk8o_5govee5sceneNtB6_13SceneRegistry4list0B8_
FNDA:0,_RNvMNtCsf2i7I5CTk8o_5govee5sceneNtB2_5Scene10brightness
FNDA:0,_RNvMNtCsf2i7I5CTk8o_5govee5sceneNtB2_5Scene3new
FNDA:0,_RNvMNtCsf2i7I5CTk8o_5govee5sceneNtB2_5Scene4name
FNDA:0,_RNvMNtCsf2i7I5CTk8o_5govee5sceneNtB2_5Scene5color
FNDA:0,_RNvMs_NtCsf2i7I5CTk8o_5govee5sceneNtB4_13SceneRegistry16with_user_scenes
FNDA:0,_RNvMs_NtCsf2i7I5CTk8o_5govee5sceneNtB4_13SceneRegistry3get
FNDA:0,_RNvMs_NtCsf2i7I5CTk8o_5govee5sceneNtB4_13SceneRegistry3new
FNDA:0,_RNvMs_NtCsf2i7I5CTk8o_5govee5sceneNtB4_13SceneRegistry4list
FNDA:0,_RNvXs0_NtCsf2i7I5CTk8o_5govee5sceneNtB5_13SceneRegistryNtNtCs85QQFkKrybG_4core7default7Default7default
FNDA:1,_RNvNtNtCseqgZqxOBWDO_5govee5scene5testss_16reject_temp_zero
FNDA:1,_RNvNtNtCseqgZqxOBWDO_5govee5scene5testss_17lookup_exact_name
FNDA:1,_RNvNtNtCseqgZqxOBWDO_5govee5scene5testss_17reject_empty_name
FNDA:1,_RNvNtNtCseqgZqxOBWDO_5govee5scene5testss_20lookup_unknown_scene
FNDA:1,_RNvNtNtCseqgZqxOBWDO_5govee5scene5testss_21user_color_temp_scene
FNDA:1,_RNvNtNtCseqgZqxOBWDO_5govee5scene5testss_22reject_name_with_space
FNDA:1,_RNvNtNtCseqgZqxOBWDO_5govee5scene5testss_22reject_temp_over_10000
FNDA:1,_RNvNtNtCseqgZqxOBWDO_5govee5scene5testss_23accept_valid_name_chars
FNDA:1,_RNvNtNtCseqgZqxOBWDO_5govee5scene5testss_23lookup_case_insensitive
FNDA:1,_RNvNtNtCseqgZqxOBWDO_5govee5scene5testss_24reject_name_with_newline
FNDA:1,_RNvNtNtCseqgZqxOBWDO_5govee5scene5testss_26reject_brightness_over_100
FNDA:1,_RNvNtNtCseqgZqxOBWDO_5govee5scene5testss_28user_scene_overrides_builtin
FNDA:1,_RNvNtNtCseqgZqxOBWDO_5govee5scene5testss_32builtins_all_present_with_values
FNDA:1,_RNvNtNtCseqgZqxOBWDO_5govee5scene5testss_38user_scene_loaded_via_with_user_scenes
FNDA:1,_RNvNtNtCseqgZqxOBWDO_5govee5scene5testss_42user_scene_neither_color_nor_temp_rejected
FNDA:1,_RNvNtNtCseqgZqxOBWDO_5govee5scene5testss_44user_scene_collision_between_two_user_scenes
FNDA:1,_RNvNtNtCseqgZqxOBWDO_5govee5scene5testss_47user_scene_case_insensitive_collision_last_wins
FNDA:19,_RNvMNtCseqgZqxOBWDO_5govee5sceneNtB2_5Scene10brightness
FNDA:16,_RNvMNtCseqgZqxOBWDO_5govee5sceneNtB2_5Scene3new
FNDA:453,_RNvMNtCseqgZqxOBWDO_5govee5sceneNtB2_5Scene4name
FNDA:19,_RNvMNtCseqgZqxOBWDO_5govee5sceneNtB2_5Scene5color
FNDA:82,_RNvMs_NtCseqgZqxOBWDO_5govee5sceneNtB4_13SceneRegistry16with_user_scenes
FNDA:21,_RNvMs_NtCseqgZqxOBWDO_5govee5sceneNtB4_13SceneRegistry3get
FNDA:86,_RNvMs_NtCseqgZqxOBWDO_5govee5sceneNtB4_13SceneRegistry3new
FNDA:1,_RNvMs_NtCseqgZqxOBWDO_5govee5sceneNtB4_13SceneRegistry4list
FNDA:0,_RNvXs0_NtCseqgZqxOBWDO_5govee5sceneNtB5_13SceneRegistryNtNtCs85QQFkKrybG_4core7default7Default7default
FNDA:65,_RNCNvMNtCseqgZqxOBWDO_5govee5sceneNtB4_5Scene3new0B6_
FNDA:0,_RNCNvMs_NtCseqgZqxOBWDO_5govee5sceneNtB6_13SceneRegistry16with_user_scenes0B8_
FNDA:2,_RNCNvMs_NtCseqgZqxOBWDO_5govee5sceneNtB6_13SceneRegistry3get0B8_
FNDA:14,_RNCNvMs_NtCseqgZqxOBWDO_5govee5sceneNtB6_13SceneRegistry4list0B8_
FNF:30
FNH:28
DA:43,16
DA:44,16
DA:45,1
DA:46,15
DA:48,15
DA:49,11
DA:51,2
DA:52,2
DA:53,2
DA:54,13
DA:56,13
DA:57,12
DA:58,12
DA:59,65
DA:61,3
DA:62,3
DA:63,3
DA:64,10
DA:66,10
DA:67,10
DA:68,10
DA:69,10
DA:70,10
DA:71,16
DA:74,453
DA:75,453
DA:76,453
DA:79,19
DA:80,19
DA:81,19
DA:84,19
DA:85,19
DA:86,19
DA:100,86
DA:101,86
DA:102,86
DA:103,86
DA:104,86
DA:105,86
DA:106,86
DA:107,86
DA:108,86
DA:109,86
DA:110,86
DA:111,86
DA:112,86
DA:113,86
DA:114,86
DA:115,86
DA:116,86
DA:117,86
DA:118,86
DA:119,86
DA:120,86
DA:121,86
DA:122,86
DA:123,86
DA:124,86
DA:125,86
DA:126,86
DA:127,86
DA:129,86
DA:130,516
DA:131,430
DA:132,430
DA:134,86
DA:135,86
DA:138,21
DA:139,21
DA:140,21
DA:141,21
DA:142,21
DA:145,1
DA:146,1
DA:147,14
DA:148,1
DA:149,1
DA:157,82
DA:159,82
DA:161,82
DA:164,82
DA:165,82
DA:167,91
DA:168,10
DA:169,10
DA:170,4
DA:171,5
DA:173,1
DA:174,1
DA:175,1
DA:179,9
DA:180,9
DA:181,9
DA:183,9
DA:184,3
DA:186,2
DA:187,1
DA:189,1
DA:190,0
DA:191,6
DA:193,9
DA:194,9
DA:197,81
DA:198,82
DA:202,0
DA:203,0
DA:204,0
DA:212,1
DA:213,1
DA:214,1
DA:215,1
DA:218,1
DA:219,1
DA:220,1
DA:222,1
DA:223,1
DA:224,1
DA:226,1
DA:227,1
DA:228,1
DA:230,1
DA:231,1
DA:232,1
DA:234,1
DA:235,1
DA:236,1
DA:237,1
DA:240,1
DA:241,1
DA:242,1
DA:243,1
DA:244,1
DA:245,1
DA:246,1
DA:249,1
DA:250,1
DA:251,1
DA:252,1
DA:253,1
DA:254,1
DA:255,1
DA:258,1
DA:259,1
DA:260,1
DA:261,1
DA:262,1
DA:265,1
DA:266,1
DA:267,1
DA:268,1
DA:271,1
DA:272,1
DA:273,1
DA:274,1
DA:277,1
DA:278,1
DA:279,1
DA:280,1
DA:283,1
DA:284,1
DA:285,1
DA:286,1
DA:289,1
DA:290,1
DA:291,1
DA:292,1
DA:295,1
DA:296,1
DA:297,1
DA:298,1
DA:301,1
DA:302,1
DA:303,1
DA:304,1
DA:305,1
DA:308,1
DA:309,1
DA:310,1
DA:311,1
DA:312,1
DA:313,1
DA:314,1
DA:315,1
DA:316,1
DA:319,1
DA:320,1
DA:321,1
DA:322,1
DA:323,1
DA:324,1
DA:327,1
DA:328,1
DA:329,1
DA:330,1
DA:331,1
DA:332,1
DA:333,1
DA:334,1
DA:335,1
DA:337,1
DA:338,1
DA:339,1
DA:342,1
DA:343,1
DA:344,1
DA:345,1
DA:346,1
DA:347,1
DA:348,1
DA:349,1
DA:350,1
DA:352,1
DA:353,1
DA:354,1
DA:355,1
DA:356,1
DA:357,1
DA:358,1
DA:361,1
DA:362,1
DA:363,1
DA:366,1
DA:367,1
DA:368,1
DA:369,1
DA:370,1
DA:371,1
DA:372,1
DA:373,1
DA:374,1
DA:377,1
DA:378,1
DA:379,1
DA:380,1
DA:381,1
DA:384,1
DA:385,1
DA:386,1
DA:387,1
DA:388,1
DA:389,1
DA:390,1
DA:391,1
DA:392,1
DA:395,1
DA:396,1
DA:397,1
DA:398,1
DA:399,1
DA:402,1
DA:405,1
DA:406,1
DA:407,1
DA:408,1
DA:409,1
DA:410,1
DA:411,1
DA:412,1
DA:414,1
DA:415,1
DA:416,1
DA:417,1
DA:418,1
DA:419,1
DA:420,1
DA:423,1
DA:424,1
DA:426,1
DA:427,1
DA:428,1
BRF:0
BRH:0
LF:274
LH:269
end_of_record
SF:/Users/waku/dev/govee/src/types.rs
FN:58,_RNCNCNvXs2_NtCsf2i7I5CTk8o_5govee5typesNtB9_8DeviceIdNtNtNtCs85QQFkKrybG_4core3str6traits7FromStr8from_str00Bb_
FN:58,_RNCNvXs2_NtCsf2i7I5CTk8o_5govee5typesNtB7_8DeviceIdNtNtNtCs85QQFkKrybG_4core3str6traits7FromStr8from_str0B9_
FN:19,_RNvMNtCsf2i7I5CTk8o_5govee5typesNtB2_8DeviceId3new
FN:25,_RNvMNtCsf2i7I5CTk8o_5govee5typesNtB2_8DeviceId6as_str
FN:121,_RNvMs4_NtCsf2i7I5CTk8o_5govee5typesNtB5_11DeviceState3new
FN:191,_RNvMs6_NtCsf2i7I5CTk8o_5govee5typesNtB5_5Color3new
FN:196,_RNvMs6_NtCsf2i7I5CTk8o_5govee5typesNtB5_5Color8to_rgb24
FN:39,_RNvXs0_NtCsf2i7I5CTk8o_5govee5typesNtB5_8DeviceIdINtNtCs85QQFkKrybG_4core7convert7TryFromNtNtCsdFlNUEO95cG_5alloc6string6StringE8try_from
FN:53,_RNvXs2_NtCsf2i7I5CTk8o_5govee5typesNtB5_8DeviceIdNtNtNtCs85QQFkKrybG_4core3str6traits7FromStr8from_str
FN:95,_RNvXs3_NtCsf2i7I5CTk8o_5govee5typesNtB5_11BackendTypeNtNtCs85QQFkKrybG_4core3fmt7Display3fmt
FN:202,_RNvXs7_NtCsf2i7I5CTk8o_5govee5typesNtB5_5ColorNtNtCs85QQFkKrybG_4core3fmt7Display3fmt
FN:31,_RNvXs_NtCsf2i7I5CTk8o_5govee5typesNtB4_8DeviceIdNtNtCs85QQFkKrybG_4core3fmt7Display3fmt
FN:45,_RNvXs1_NtCsf2i7I5CTk8o_5govee5typesNtNtCsdFlNUEO95cG_5alloc6string6StringINtNtCs85QQFkKrybG_4core7convert4FromNtB5_8DeviceIdE4from
FN:299,_RNvNtNtCseqgZqxOBWDO_5govee5types5testss_13color_display
FN:305,_RNvNtNtCseqgZqxOBWDO_5govee5types5testss_14color_to_rgb24
FN:255,_RNvNtNtCseqgZqxOBWDO_5govee5types5testss_18device_id_equality
FN:262,_RNvNtNtCseqgZqxOBWDO_5govee5types5testss_18device_id_from_str
FN:314,_RNvNtNtCseqgZqxOBWDO_5govee5types5testss_20backend_type_display
FN:268,_RNvNtNtCseqgZqxOBWDO_5govee5types5testss_21device_id_into_string
FN:229,_RNvNtNtCseqgZqxOBWDO_5govee5types5testss_23device_id_valid_6_octet
FN:235,_RNvNtNtCseqgZqxOBWDO_5govee5types5testss_23device_id_valid_8_octet
FN:247,_RNvNtNtCseqgZqxOBWDO_5govee5types5testss_24device_id_invalid_format
FN:346,_RNvNtNtCseqgZqxOBWDO_5govee5types5testss_28backend_type_serde_lowercase
FN:277,_RNvNtNtCseqgZqxOBWDO_5govee5types5testss_29device_state_valid_brightness
FN:322,_RNvNtNtCseqgZqxOBWDO_5govee5types5testss_31device_id_deserialize_validates
FN:284,_RNvNtNtCseqgZqxOBWDO_5govee5types5testss_32device_state_brightness_boundary
FN:241,_RNvNtNtCseqgZqxOBWDO_5govee5types5testss_33device_id_normalizes_to_uppercase
FN:333,_RNvNtNtCseqgZqxOBWDO_5govee5types5testss_45device_state_deserialize_validates_brightness
FN:144,_RINvXs5_NtCseqgZqxOBWDO_5govee5typesNtB6_11DeviceStateNtNtCskhgUCy5GPyx_10serde_core2de11Deserialize11deserializeQINtNtCs2gIcK9cuZ92_10serde_json2de12DeserializerNtNtB1T_4read7StrReadEEB8_
FN:58,_RNCNCNvXs2_NtCseqgZqxOBWDO_5govee5typesNtB9_8DeviceIdNtNtNtCs85QQFkKrybG_4core3str6traits7FromStr8from_str00Bb_
FN:58,_RNCNvXs2_NtCseqgZqxOBWDO_5govee5typesNtB7_8DeviceIdNtNtNtCs85QQFkKrybG_4core3str6traits7FromStr8from_str0B9_
FN:45,_RNvXs1_NtCseqgZqxOBWDO_5govee5typesNtNtCsdFlNUEO95cG_5alloc6string6StringINtNtCs85QQFkKrybG_4core7convert4FromNtB5_8DeviceIdE4from
FN:19,_RNvMNtCseqgZqxOBWDO_5govee5typesNtB2_8DeviceId3new
FN:25,_RNvMNtCseqgZqxOBWDO_5govee5typesNtB2_8DeviceId6as_str
FN:121,_RNvMs4_NtCseqgZqxOBWDO_5govee5typesNtB5_11DeviceState3new
FN:191,_RNvMs6_NtCseqgZqxOBWDO_5govee5typesNtB5_5Color3new
FN:196,_RNvMs6_NtCseqgZqxOBWDO_5govee5typesNtB5_5Color8to_rgb24
FN:39,_RNvXs0_NtCseqgZqxOBWDO_5govee5typesNtB5_8DeviceIdINtNtCs85QQFkKrybG_4core7convert7TryFromNtNtCsdFlNUEO95cG_5alloc6string6StringE8try_from
FN:53,_RNvXs2_NtCseqgZqxOBWDO_5govee5typesNtB5_8DeviceIdNtNtNtCs85QQFkKrybG_4core3str6traits7FromStr8from_str
FN:95,_RNvXs3_NtCseqgZqxOBWDO_5govee5typesNtB5_11BackendTypeNtNtCs85QQFkKrybG_4core3fmt7Display3fmt
FN:202,_RNvXs7_NtCseqgZqxOBWDO_5govee5typesNtB5_5ColorNtNtCs85QQFkKrybG_4core3fmt7Display3fmt
FN:31,_RNvXs_NtCseqgZqxOBWDO_5govee5typesNtB4_8DeviceIdNtNtCs85QQFkKrybG_4core3fmt7Display3fmt
FNDA:1932,_RNCNCNvXs2_NtCsf2i7I5CTk8o_5govee5typesNtB9_8DeviceIdNtNtNtCs85QQFkKrybG_4core3str6traits7FromStr8from_str00Bb_
FNDA:966,_RNCNvXs2_NtCsf2i7I5CTk8o_5govee5typesNtB7_8DeviceIdNtNtNtCs85QQFkKrybG_4core3str6traits7FromStr8from_str0B9_
FNDA:155,_RNvMNtCsf2i7I5CTk8o_5govee5typesNtB2_8DeviceId3new
FNDA:60,_RNvMNtCsf2i7I5CTk8o_5govee5typesNtB2_8DeviceId6as_str
FNDA:6,_RNvMs4_NtCsf2i7I5CTk8o_5govee5typesNtB5_11DeviceState3new
FNDA:22,_RNvMs6_NtCsf2i7I5CTk8o_5govee5typesNtB5_5Color3new
FNDA:3,_RNvMs6_NtCsf2i7I5CTk8o_5govee5typesNtB5_5Color8to_rgb24
FNDA:0,_RNvXs0_NtCsf2i7I5CTk8o_5govee5typesNtB5_8DeviceIdINtNtCs85QQFkKrybG_4core7convert7TryFromNtNtCsdFlNUEO95cG_5alloc6string6StringE8try_from
FNDA:155,_RNvXs2_NtCsf2i7I5CTk8o_5govee5typesNtB5_8DeviceIdNtNtNtCs85QQFkKrybG_4core3str6traits7FromStr8from_str
FNDA:0,_RNvXs3_NtCsf2i7I5CTk8o_5govee5typesNtB5_11BackendTypeNtNtCs85QQFkKrybG_4core3fmt7Display3fmt
FNDA:0,_RNvXs7_NtCsf2i7I5CTk8o_5govee5typesNtB5_5ColorNtNtCs85QQFkKrybG_4core3fmt7Display3fmt
FNDA:11,_RNvXs_NtCsf2i7I5CTk8o_5govee5typesNtB4_8DeviceIdNtNtCs85QQFkKrybG_4core3fmt7Display3fmt
FNDA:0,_RNvXs1_NtCsf2i7I5CTk8o_5govee5typesNtNtCsdFlNUEO95cG_5alloc6string6StringINtNtCs85QQFkKrybG_4core7convert4FromNtB5_8DeviceIdE4from
FNDA:1,_RNvNtNtCseqgZqxOBWDO_5govee5types5testss_13color_display
FNDA:1,_RNvNtNtCseqgZqxOBWDO_5govee5types5testss_14color_to_rgb24
FNDA:1,_RNvNtNtCseqgZqxOBWDO_5govee5types5testss_18device_id_equality
FNDA:1,_RNvNtNtCseqgZqxOBWDO_5govee5types5testss_18device_id_from_str
FNDA:1,_RNvNtNtCseqgZqxOBWDO_5govee5types5testss_20backend_type_display
FNDA:1,_RNvNtNtCseqgZqxOBWDO_5govee5types5testss_21device_id_into_string
FNDA:1,_RNvNtNtCseqgZqxOBWDO_5govee5types5testss_23device_id_valid_6_octet
FNDA:1,_RNvNtNtCseqgZqxOBWDO_5govee5types5testss_23device_id_valid_8_octet
FNDA:1,_RNvNtNtCseqgZqxOBWDO_5govee5types5testss_24device_id_invalid_format
FNDA:1,_RNvNtNtCseqgZqxOBWDO_5govee5types5testss_28backend_type_serde_lowercase
FNDA:1,_RNvNtNtCseqgZqxOBWDO_5govee5types5testss_29device_state_valid_brightness
FNDA:1,_RNvNtNtCseqgZqxOBWDO_5govee5types5testss_31device_id_deserialize_validates
FNDA:1,_RNvNtNtCseqgZqxOBWDO_5govee5types5testss_32device_state_brightness_boundary
FNDA:1,_RNvNtNtCseqgZqxOBWDO_5govee5types5testss_33device_id_normalizes_to_uppercase
FNDA:1,_RNvNtNtCseqgZqxOBWDO_5govee5types5testss_45device_state_deserialize_validates_brightness
FNDA:2,_RINvXs5_NtCseqgZqxOBWDO_5govee5typesNtB6_11DeviceStateNtNtCskhgUCy5GPyx_10serde_core2de11Deserialize11deserializeQINtNtCs2gIcK9cuZ92_10serde_json2de12DeserializerNtNtB1T_4read7StrReadEEB8_
FNDA:2233,_RNCNCNvXs2_NtCseqgZqxOBWDO_5govee5typesNtB9_8DeviceIdNtNtNtCs85QQFkKrybG_4core3str6traits7FromStr8from_str00Bb_
FNDA:1120,_RNCNvXs2_NtCseqgZqxOBWDO_5govee5typesNtB7_8DeviceIdNtNtNtCs85QQFkKrybG_4core3str6traits7FromStr8from_str0B9_
FNDA:1,_RNvXs1_NtCseqgZqxOBWDO_5govee5typesNtNtCsdFlNUEO95cG_5alloc6string6StringINtNtCs85QQFkKrybG_4core7convert4FromNtB5_8DeviceIdE4from
FNDA:186,_RNvMNtCseqgZqxOBWDO_5govee5typesNtB2_8DeviceId3new
FNDA:46,_RNvMNtCseqgZqxOBWDO_5govee5typesNtB2_8DeviceId6as_str
FNDA:51,_RNvMs4_NtCseqgZqxOBWDO_5govee5typesNtB5_11DeviceState3new
FNDA:174,_RNvMs6_NtCseqgZqxOBWDO_5govee5typesNtB5_5Color3new
FNDA:3,_RNvMs6_NtCseqgZqxOBWDO_5govee5typesNtB5_5Color8to_rgb24
FNDA:2,_RNvXs0_NtCseqgZqxOBWDO_5govee5typesNtB5_8DeviceIdINtNtCs85QQFkKrybG_4core7convert7TryFromNtNtCsdFlNUEO95cG_5alloc6string6StringE8try_from
FNDA:189,_RNvXs2_NtCseqgZqxOBWDO_5govee5typesNtB5_8DeviceIdNtNtNtCs85QQFkKrybG_4core3str6traits7FromStr8from_str
FNDA:2,_RNvXs3_NtCseqgZqxOBWDO_5govee5typesNtB5_11BackendTypeNtNtCs85QQFkKrybG_4core3fmt7Display3fmt
FNDA:1,_RNvXs7_NtCseqgZqxOBWDO_5govee5typesNtB5_5ColorNtNtCs85QQFkKrybG_4core3fmt7Display3fmt
FNDA:14,_RNvXs_NtCseqgZqxOBWDO_5govee5typesNtB4_8DeviceIdNtNtCs85QQFkKrybG_4core3fmt7Display3fmt
FNF:29
FNH:29
DA:19,341
DA:20,341
DA:21,336
DA:22,341
DA:25,106
DA:26,106
DA:27,106
DA:31,25
DA:32,25
DA:33,25
DA:39,2
DA:40,2
DA:41,2
DA:45,1
DA:46,1
DA:47,1
DA:53,344
DA:54,344
DA:55,344
DA:56,344
DA:57,344
DA:58,4165
DA:60,344
DA:61,338
DA:63,6
DA:65,344
DA:95,2
DA:96,2
DA:97,1
DA:98,1
DA:100,2
DA:121,57
DA:122,57
DA:123,57
DA:124,57
DA:125,57
DA:126,57
DA:127,57
DA:128,57
DA:129,57
DA:130,2
DA:131,55
DA:132,55
DA:133,55
DA:134,55
DA:135,55
DA:136,55
DA:137,55
DA:138,55
DA:139,55
DA:140,57
DA:144,2
DA:145,2
DA:146,2
DA:159,2
DA:160,2
DA:161,2
DA:162,2
DA:163,2
DA:164,2
DA:165,2
DA:166,2
DA:168,2
DA:169,2
DA:191,196
DA:192,196
DA:193,196
DA:196,6
DA:197,6
DA:198,6
DA:202,1
DA:203,1
DA:204,1
DA:229,1
DA:230,1
DA:231,1
DA:232,1
DA:235,1
DA:236,1
DA:237,1
DA:238,1
DA:241,1
DA:242,1
DA:243,1
DA:244,1
DA:247,1
DA:248,1
DA:249,1
DA:250,1
DA:251,1
DA:252,1
DA:255,1
DA:256,1
DA:257,1
DA:258,1
DA:259,1
DA:262,1
DA:263,1
DA:264,1
DA:265,1
DA:268,1
DA:269,1
DA:270,1
DA:271,1
DA:272,1
DA:277,1
DA:278,1
DA:279,1
DA:280,1
DA:281,1
DA:284,1
DA:285,1
DA:286,1
DA:288,1
DA:289,1
DA:291,1
DA:292,1
DA:294,1
DA:299,1
DA:300,1
DA:301,1
DA:302,1
DA:305,1
DA:306,1
DA:307,1
DA:308,1
DA:309,1
DA:314,1
DA:315,1
DA:316,1
DA:317,1
DA:322,1
DA:323,1
DA:324,1
DA:325,1
DA:326,1
DA:328,1
DA:329,1
DA:330,1
DA:333,1
DA:334,1
DA:335,1
DA:337,1
DA:339,1
DA:340,1
DA:342,1
DA:343,1
DA:346,1
DA:347,1
DA:348,1
DA:350,1
DA:351,1
DA:352,1
BRF:0
BRH:0
LF:155
LH:155
end_of_record